	.text
	.file	"std_iota_std_vector.cpp"
	.globl	main                            # -- Begin function main
	.p2align	4, 0x90
	.type	main,@function
main:                                   # @main
	.cfi_startproc
# %bb.0:                                # %entry
	pushq	%rbp
	.cfi_def_cfa_offset 16
	pushq	%r15
	.cfi_def_cfa_offset 24
	pushq	%r14
	.cfi_def_cfa_offset 32
	pushq	%r13
	.cfi_def_cfa_offset 40
	pushq	%r12
	.cfi_def_cfa_offset 48
	pushq	%rbx
	.cfi_def_cfa_offset 56
	subq	$232, %rsp
	.cfi_def_cfa_offset 288
	.cfi_offset %rbx, -56
	.cfi_offset %r12, -48
	.cfi_offset %r13, -40
	.cfi_offset %r14, -32
	.cfi_offset %r15, -24
	.cfi_offset %rbp, -16
	movl	$1, 28(%rsp)
	movl	$0, 20(%rsp)
	movq	$1000, 80(%rsp)                 # imm = 0x3E8
	movq	$1000, 32(%rsp)                 # imm = 0x3E8
	leaq	20(%rsp), %rbx
	movq	%rbx, 88(%rsp)
	movq	%rbx, 40(%rsp)
	leaq	16(%rsp), %r12
	movq	%r12, 96(%rsp)
	movq	%r12, 48(%rsp)
	leaq	15(%rsp), %rbp
	movq	%rbp, 104(%rsp)
	movq	%rbp, 56(%rsp)
	leaq	28(%rsp), %r14
	movq	%r14, 112(%rsp)
	movq	%r14, 64(%rsp)
	movabsq	$21474836482, %rax              # imm = 0x500000002
	movq	%rax, 128(%rsp)
	leaq	80(%rsp), %r15
	movq	%r15, 136(%rsp)
	leaq	32(%rsp), %r13
	movq	%r13, 144(%rsp)
	leaq	.L.offload_sizes(%rip), %rax
	movq	%rax, 152(%rsp)
	leaq	.L.offload_maptypes(%rip), %rax
	movq	%rax, 160(%rsp)
	xorps	%xmm0, %xmm0
	movups	%xmm0, 168(%rsp)
	movq	$1000, 184(%rsp)                # imm = 0x3E8
	movups	%xmm0, 208(%rsp)
	movups	%xmm0, 192(%rsp)
	movl	$0, 224(%rsp)
	leaq	.L__unnamed_1(%rip), %rdi
	movq	.__omp_offloading_16_63dbd8c8__ZNSt3__113__par_backend17__omp_gpu_backend35__omp_parallel_for_simd_reduction_1B7v180000INS_6ranges9iota_viewIiiE10__iteratorEliiZ4mainE3$_0EET1_T_T0_S8_NS_4plusIT2_EET3_i_l341.region_id@GOTPCREL(%rip), %r8
	leaq	128(%rsp), %r9
	xorl	%esi, %esi
	xorl	%edx, %edx
	xorl	%ecx, %ecx
	callq	__tgt_target_kernel@PLT
	testl	%eax, %eax
	je	.LBB0_2
# %bb.1:                                # %omp_offload.failed.i.i.i.i
	leaq	.L__unnamed_1(%rip), %rdi
	leaq	__omp_offloading_16_63dbd8c8__ZNSt3__113__par_backend17__omp_gpu_backend35__omp_parallel_for_simd_reduction_1B7v180000INS_6ranges9iota_viewIiiE10__iteratorEliiZ4mainE3$_0EET1_T_T0_S8_NS_4plusIT2_EET3_i_l341.omp_outlined(%rip), %rdx
	leaq	20(%rsp), %r8
	leaq	16(%rsp), %r9
	movl	$1000, %ecx                     # imm = 0x3E8
	movl	$5, %esi
	xorl	%eax, %eax
	pushq	%r14
	.cfi_adjust_cfa_offset 8
	pushq	%rbp
	.cfi_adjust_cfa_offset 8
	callq	__kmpc_fork_teams@PLT
	addq	$16, %rsp
	.cfi_adjust_cfa_offset -16
.LBB0_2:                                # %"_ZNSt3__116transform_reduceB7v180000IRKNS_9execution27parallel_unsequenced_policyENS_6ranges9iota_viewIiiE10__iteratorEiNS_4plusIiEEZ4mainE3$_0S2_TnNS_9enable_ifIX21is_execution_policy_vIT4_EEiE4typeELi0EEET1_OT_T0_SJ_SG_T2_T3_.exit"
	cmpl	$500500, 20(%rsp)               # imm = 0x7A314
	jne	.LBB0_7
# %bb.3:                                # %cond.end
	movl	$1, 28(%rsp)
	movl	$2, 20(%rsp)
	movl	$0, 16(%rsp)
	movq	$1000, 80(%rsp)                 # imm = 0x3E8
	movq	$1000, 32(%rsp)                 # imm = 0x3E8
	movq	%r12, 88(%rsp)
	movq	%r12, 40(%rsp)
	movq	%rbp, 96(%rsp)
	movq	%rbp, 48(%rsp)
	leaq	27(%rsp), %r12
	movq	%r12, 104(%rsp)
	movq	%r12, 56(%rsp)
	movq	%r14, 112(%rsp)
	movq	%r14, 64(%rsp)
	movq	%rbx, 120(%rsp)
	movq	%rbx, 72(%rsp)
	movabsq	$25769803778, %rax              # imm = 0x600000002
	movq	%rax, 128(%rsp)
	movq	%r15, 136(%rsp)
	movq	%r13, 144(%rsp)
	leaq	.L.offload_sizes.3(%rip), %rax
	movq	%rax, 152(%rsp)
	leaq	.L.offload_maptypes.4(%rip), %rax
	movq	%rax, 160(%rsp)
	xorps	%xmm0, %xmm0
	movups	%xmm0, 168(%rsp)
	movq	$1000, 184(%rsp)                # imm = 0x3E8
	movups	%xmm0, 208(%rsp)
	movups	%xmm0, 192(%rsp)
	movl	$0, 224(%rsp)
	leaq	.L__unnamed_1(%rip), %rdi
	movq	.__omp_offloading_16_63dbd8c8__ZNSt3__113__par_backend17__omp_gpu_backend35__omp_parallel_for_simd_reduction_2B7v180000INS_6ranges9iota_viewIiiE10__iteratorES6_liiZ4mainE3$_1EET2_T_T0_T1_S8_NS_4plusIT3_EET4_i_l341.region_id@GOTPCREL(%rip), %r8
	leaq	128(%rsp), %r9
	xorl	%esi, %esi
	xorl	%edx, %edx
	xorl	%ecx, %ecx
	callq	__tgt_target_kernel@PLT
	testl	%eax, %eax
	je	.LBB0_5
# %bb.4:                                # %omp_offload.failed.i.i.i.i19
	subq	$8, %rsp
	.cfi_adjust_cfa_offset 8
	leaq	.L__unnamed_1(%rip), %rdi
	leaq	__omp_offloading_16_63dbd8c8__ZNSt3__113__par_backend17__omp_gpu_backend35__omp_parallel_for_simd_reduction_2B7v180000INS_6ranges9iota_viewIiiE10__iteratorES6_liiZ4mainE3$_1EET2_T_T0_T1_S8_NS_4plusIT3_EET4_i_l341.omp_outlined(%rip), %rdx
	leaq	24(%rsp), %r8
	leaq	23(%rsp), %r9
	movl	$1000, %ecx                     # imm = 0x3E8
	movl	$6, %esi
	xorl	%eax, %eax
	pushq	%rbx
	.cfi_adjust_cfa_offset 8
	pushq	%r14
	.cfi_adjust_cfa_offset 8
	pushq	%r12
	.cfi_adjust_cfa_offset 8
	callq	__kmpc_fork_teams@PLT
	addq	$32, %rsp
	.cfi_adjust_cfa_offset -32
.LBB0_5:                                # %"_ZNSt3__116transform_reduceB7v180000IRKNS_9execution27parallel_unsequenced_policyENS_6ranges9iota_viewIiiE10__iteratorES8_iNS_4plusIiEEZ4mainE3$_1S2_TnNS_9enable_ifIX21is_execution_policy_vIT5_EEiE4typeELi0EEET2_OT_T0_SJ_T1_SG_T3_T4_.exit"
	cmpl	$1000, 16(%rsp)                 # imm = 0x3E8
	jne	.LBB0_8
# %bb.6:                                # %cond.end33
	xorl	%eax, %eax
	addq	$232, %rsp
	.cfi_def_cfa_offset 56
	popq	%rbx
	.cfi_def_cfa_offset 48
	popq	%r12
	.cfi_def_cfa_offset 40
	popq	%r13
	.cfi_def_cfa_offset 32
	popq	%r14
	.cfi_def_cfa_offset 24
	popq	%r15
	.cfi_def_cfa_offset 16
	popq	%rbp
	.cfi_def_cfa_offset 8
	retq
.LBB0_7:                                # %cond.false
	.cfi_def_cfa_offset 288
	leaq	.L.str(%rip), %rdi
	leaq	.L.str.1(%rip), %rsi
	leaq	.L__PRETTY_FUNCTION__.main(%rip), %rcx
	movl	$14, %edx
	callq	__assert_fail@PLT
.LBB0_8:                                # %cond.false32
	leaq	.L.str.2(%rip), %rdi
	leaq	.L.str.1(%rip), %rsi
	leaq	.L__PRETTY_FUNCTION__.main(%rip), %rcx
	movl	$18, %edx
	callq	__assert_fail@PLT
.Lfunc_end0:
	.size	main, .Lfunc_end0-main
	.cfi_endproc
                                        # -- End function
	.p2align	4, 0x90                         # -- Begin function __omp_offloading_16_63dbd8c8__ZNSt3__113__par_backend17__omp_gpu_backend35__omp_parallel_for_simd_reduction_1B7v180000INS_6ranges9iota_viewIiiE10__iteratorEliiZ4mainE3$_0EET1_T_T0_S8_NS_4plusIT2_EET3_i_l341.omp_outlined
	.type	__omp_offloading_16_63dbd8c8__ZNSt3__113__par_backend17__omp_gpu_backend35__omp_parallel_for_simd_reduction_1B7v180000INS_6ranges9iota_viewIiiE10__iteratorEliiZ4mainE3$_0EET1_T_T0_S8_NS_4plusIT2_EET3_i_l341.omp_outlined,@function
__omp_offloading_16_63dbd8c8__ZNSt3__113__par_backend17__omp_gpu_backend35__omp_parallel_for_simd_reduction_1B7v180000INS_6ranges9iota_viewIiiE10__iteratorEliiZ4mainE3$_0EET1_T_T0_S8_NS_4plusIT2_EET3_i_l341.omp_outlined: # @"__omp_offloading_16_63dbd8c8__ZNSt3__113__par_backend17__omp_gpu_backend35__omp_parallel_for_simd_reduction_1B7v180000INS_6ranges9iota_viewIiiE10__iteratorEliiZ4mainE3$_0EET1_T_T0_S8_NS_4plusIT2_EET3_i_l341.omp_outlined"
	.cfi_startproc
# %bb.0:                                # %entry
	pushq	%rbp
	.cfi_def_cfa_offset 16
	pushq	%r15
	.cfi_def_cfa_offset 24
	pushq	%r14
	.cfi_def_cfa_offset 32
	pushq	%r13
	.cfi_def_cfa_offset 40
	pushq	%r12
	.cfi_def_cfa_offset 48
	pushq	%rbx
	.cfi_def_cfa_offset 56
	subq	$56, %rsp
	.cfi_def_cfa_offset 112
	.cfi_offset %rbx, -56
	.cfi_offset %r12, -48
	.cfi_offset %r13, -40
	.cfi_offset %r14, -32
	.cfi_offset %r15, -24
	.cfi_offset %rbp, -16
	movq	%rcx, %rbx
	movl	$0, (%rsp)
	movl	(%rdi), %ebp
	testq	%rdx, %rdx
	jle	.LBB1_5
# %bb.1:                                # %omp.precond.then
	movq	%r8, %r14
	movq	%rdx, %r15
	movq	%rbx, 40(%rsp)                  # 8-byte Spill
	leaq	-1(%rdx), %rbx
	movq	$0, 16(%rsp)
	movq	%rbx, 8(%rsp)
	movq	$1, 32(%rsp)
	movl	$0, 28(%rsp)
	subq	$8, %rsp
	.cfi_adjust_cfa_offset 8
	leaq	40(%rsp), %rax
	leaq	.L__unnamed_2(%rip), %rdi
	leaq	36(%rsp), %rcx
	leaq	24(%rsp), %r8
	leaq	16(%rsp), %r9
	movl	%ebp, 32(%rsp)                  # 4-byte Spill
	movl	%ebp, %esi
	movl	$92, %edx
	pushq	$1
	.cfi_adjust_cfa_offset 8
	pushq	$1
	.cfi_adjust_cfa_offset 8
	pushq	%rax
	.cfi_adjust_cfa_offset 8
	callq	__kmpc_for_static_init_8@PLT
	movq	%rbx, %r8
	addq	$32, %rsp
	.cfi_adjust_cfa_offset -32
	movq	8(%rsp), %rax
	cmpq	%rbx, %rax
	cmovlq	%rax, %r8
	movq	%r8, 8(%rsp)
	movq	16(%rsp), %rbx
	cmpq	%r8, %rbx
	jg	.LBB1_4
# %bb.2:                                # %omp.inner.for.body.preheader
	movq	%rsp, %rbp
	leaq	.L__unnamed_1(%rip), %r12
	leaq	__omp_offloading_16_63dbd8c8__ZNSt3__113__par_backend17__omp_gpu_backend35__omp_parallel_for_simd_reduction_1B7v180000INS_6ranges9iota_viewIiiE10__iteratorEliiZ4mainE3$_0EET1_T_T0_S8_NS_4plusIT2_EET3_i_l341.omp_outlined.omp_outlined(%rip), %r13
	.p2align	4, 0x90
.LBB1_3:                                # %omp.inner.for.body
                                        # =>This Inner Loop Header: Depth=1
	movq	16(%rsp), %rcx
	movq	%r12, %rdi
	movl	$7, %esi
	movq	%r13, %rdx
	movq	%r15, %r9
	xorl	%eax, %eax
	pushq	112(%rsp)
	.cfi_adjust_cfa_offset 8
	leaq	15(%rsp), %r10
	pushq	%r10
	.cfi_adjust_cfa_offset 8
	pushq	%r14
	.cfi_adjust_cfa_offset 8
	pushq	%rbp
	.cfi_adjust_cfa_offset 8
	callq	__kmpc_fork_call@PLT
	addq	$32, %rsp
	.cfi_adjust_cfa_offset -32
	addq	32(%rsp), %rbx
	movq	8(%rsp), %r8
	cmpq	%r8, %rbx
	jle	.LBB1_3
.LBB1_4:                                # %omp.loop.exit
	leaq	.L__unnamed_2(%rip), %rdi
	movl	24(%rsp), %ebp                  # 4-byte Reload
	movl	%ebp, %esi
	callq	__kmpc_for_static_fini@PLT
	movq	40(%rsp), %rbx                  # 8-byte Reload
.LBB1_5:                                # %omp.precond.end
	movq	%rsp, %rax
	movq	%rax, 48(%rsp)
	subq	$8, %rsp
	.cfi_adjust_cfa_offset 8
	movq	.gomp_critical_user_.reduction.var@GOTPCREL(%rip), %rax
	leaq	.L__unnamed_3(%rip), %rdi
	leaq	__omp_offloading_16_63dbd8c8__ZNSt3__113__par_backend17__omp_gpu_backend35__omp_parallel_for_simd_reduction_1B7v180000INS_6ranges9iota_viewIiiE10__iteratorEliiZ4mainE3$_0EET1_T_T0_S8_NS_4plusIT2_EET3_i_l341.omp_outlined.omp.reduction.reduction_func(%rip), %r9
	leaq	56(%rsp), %r8
	movl	$8, %ecx
	movl	%ebp, %esi
	movl	$1, %edx
	pushq	%rax
	.cfi_adjust_cfa_offset 8
	callq	__kmpc_reduce_nowait@PLT
	addq	$16, %rsp
	.cfi_adjust_cfa_offset -16
	cmpl	$2, %eax
	je	.LBB1_8
# %bb.6:                                # %omp.precond.end
	cmpl	$1, %eax
	jne	.LBB1_9
# %bb.7:                                # %.omp.reduction.case1
	movl	(%rsp), %eax
	addl	%eax, (%rbx)
	leaq	.L__unnamed_3(%rip), %rdi
	movq	.gomp_critical_user_.reduction.var@GOTPCREL(%rip), %rdx
	movl	%ebp, %esi
	callq	__kmpc_end_reduce_nowait@PLT
	jmp	.LBB1_9
.LBB1_8:                                # %.omp.reduction.case2
	movl	(%rsp), %eax
	lock		addl	%eax, (%rbx)
.LBB1_9:                                # %.omp.reduction.default
	addq	$56, %rsp
	.cfi_def_cfa_offset 56
	popq	%rbx
	.cfi_def_cfa_offset 48
	popq	%r12
	.cfi_def_cfa_offset 40
	popq	%r13
	.cfi_def_cfa_offset 32
	popq	%r14
	.cfi_def_cfa_offset 24
	popq	%r15
	.cfi_def_cfa_offset 16
	popq	%rbp
	.cfi_def_cfa_offset 8
	retq
.Lfunc_end1:
	.size	__omp_offloading_16_63dbd8c8__ZNSt3__113__par_backend17__omp_gpu_backend35__omp_parallel_for_simd_reduction_1B7v180000INS_6ranges9iota_viewIiiE10__iteratorEliiZ4mainE3$_0EET1_T_T0_S8_NS_4plusIT2_EET3_i_l341.omp_outlined, .Lfunc_end1-__omp_offloading_16_63dbd8c8__ZNSt3__113__par_backend17__omp_gpu_backend35__omp_parallel_for_simd_reduction_1B7v180000INS_6ranges9iota_viewIiiE10__iteratorEliiZ4mainE3$_0EET1_T_T0_S8_NS_4plusIT2_EET3_i_l341.omp_outlined
	.cfi_endproc
                                        # -- End function
	.p2align	4, 0x90                         # -- Begin function __omp_offloading_16_63dbd8c8__ZNSt3__113__par_backend17__omp_gpu_backend35__omp_parallel_for_simd_reduction_1B7v180000INS_6ranges9iota_viewIiiE10__iteratorEliiZ4mainE3$_0EET1_T_T0_S8_NS_4plusIT2_EET3_i_l341.omp_outlined.omp_outlined
	.type	__omp_offloading_16_63dbd8c8__ZNSt3__113__par_backend17__omp_gpu_backend35__omp_parallel_for_simd_reduction_1B7v180000INS_6ranges9iota_viewIiiE10__iteratorEliiZ4mainE3$_0EET1_T_T0_S8_NS_4plusIT2_EET3_i_l341.omp_outlined.omp_outlined,@function
__omp_offloading_16_63dbd8c8__ZNSt3__113__par_backend17__omp_gpu_backend35__omp_parallel_for_simd_reduction_1B7v180000INS_6ranges9iota_viewIiiE10__iteratorEliiZ4mainE3$_0EET1_T_T0_S8_NS_4plusIT2_EET3_i_l341.omp_outlined.omp_outlined: # @"__omp_offloading_16_63dbd8c8__ZNSt3__113__par_backend17__omp_gpu_backend35__omp_parallel_for_simd_reduction_1B7v180000INS_6ranges9iota_viewIiiE10__iteratorEliiZ4mainE3$_0EET1_T_T0_S8_NS_4plusIT2_EET3_i_l341.omp_outlined.omp_outlined"
	.cfi_startproc
# %bb.0:                                # %entry
	testq	%r8, %r8
	jle	.LBB2_8
# %bb.1:                                # %omp.precond.then
	pushq	%rbp
	.cfi_def_cfa_offset 16
	pushq	%r14
	.cfi_def_cfa_offset 24
	pushq	%rbx
	.cfi_def_cfa_offset 32
	subq	$48, %rsp
	.cfi_def_cfa_offset 80
	.cfi_offset %rbx, -32
	.cfi_offset %r14, -24
	.cfi_offset %rbp, -16
	movq	%r9, %rbx
	movq	%r8, %r14
	decq	%r14
	movq	%rdx, 24(%rsp)
	movq	%rcx, 8(%rsp)
	movq	$1, 40(%rsp)
	movl	$0, 20(%rsp)
	movl	(%rdi), %ebp
	subq	$8, %rsp
	.cfi_adjust_cfa_offset 8
	leaq	48(%rsp), %rax
	leaq	.L__unnamed_4(%rip), %rdi
	leaq	28(%rsp), %rcx
	leaq	32(%rsp), %r8
	leaq	16(%rsp), %r9
	movl	%ebp, %esi
	movl	$34, %edx
	pushq	$1
	.cfi_adjust_cfa_offset 8
	pushq	$1
	.cfi_adjust_cfa_offset 8
	pushq	%rax
	.cfi_adjust_cfa_offset 8
	callq	__kmpc_for_static_init_8@PLT
	addq	$32, %rsp
	.cfi_adjust_cfa_offset -32
	movq	8(%rsp), %rax
	cmpq	%r14, %rax
	cmovlq	%rax, %r14
	movq	%r14, 8(%rsp)
	movq	24(%rsp), %rax
	xorl	%ecx, %ecx
	cmpq	%r14, %rax
	jg	.LBB2_3
# %bb.2:                                # %invoke.cont.lr.ph
	movq	96(%rsp), %rcx
	movl	(%rcx), %ecx
	leal	(%rcx,%rax), %edx
	incl	%edx
                                        # kill: def $ecx killed $ecx killed $rcx
	addl	%eax, %ecx
	movl	%r14d, %esi
	subl	%eax, %esi
	imull	%edx, %esi
	movq	%rax, %rdx
	notq	%rdx
	addq	%r14, %rdx
	subq	%rax, %r14
	imulq	%rdx, %r14
	shrq	%r14
	addl	%ecx, %r14d
	addl	%esi, %r14d
	movl	%r14d, %ecx
.LBB2_3:                                # %omp.loop.exit
	movl	%ecx, 4(%rsp)
	leaq	.L__unnamed_2(%rip), %rdi
	movl	%ebp, %esi
	callq	__kmpc_for_static_fini@PLT
	leaq	4(%rsp), %rax
	movq	%rax, 32(%rsp)
	subq	$8, %rsp
	.cfi_adjust_cfa_offset 8
	movq	.gomp_critical_user_.reduction.var@GOTPCREL(%rip), %rax
	leaq	.L__unnamed_3(%rip), %rdi
	leaq	__omp_offloading_16_63dbd8c8__ZNSt3__113__par_backend17__omp_gpu_backend35__omp_parallel_for_simd_reduction_1B7v180000INS_6ranges9iota_viewIiiE10__iteratorEliiZ4mainE3$_0EET1_T_T0_S8_NS_4plusIT2_EET3_i_l341.omp_outlined.omp_outlined.omp.reduction.reduction_func(%rip), %r9
	leaq	40(%rsp), %r8
	movl	$8, %ecx
	movl	%ebp, %esi
	movl	$1, %edx
	pushq	%rax
	.cfi_adjust_cfa_offset 8
	callq	__kmpc_reduce_nowait@PLT
	addq	$16, %rsp
	.cfi_adjust_cfa_offset -16
	cmpl	$2, %eax
	je	.LBB2_6
# %bb.4:                                # %omp.loop.exit
	cmpl	$1, %eax
	jne	.LBB2_7
# %bb.5:                                # %.omp.reduction.case1
	movl	4(%rsp), %eax
	addl	%eax, (%rbx)
	leaq	.L__unnamed_3(%rip), %rdi
	movq	.gomp_critical_user_.reduction.var@GOTPCREL(%rip), %rdx
	movl	%ebp, %esi
	callq	__kmpc_end_reduce_nowait@PLT
	jmp	.LBB2_7
.LBB2_6:                                # %.omp.reduction.case2
	movl	4(%rsp), %eax
	lock		addl	%eax, (%rbx)
.LBB2_7:                                # %.omp.reduction.default
	addq	$48, %rsp
	.cfi_def_cfa_offset 32
	popq	%rbx
	.cfi_def_cfa_offset 24
	popq	%r14
	.cfi_def_cfa_offset 16
	popq	%rbp
	.cfi_def_cfa_offset 8
	.cfi_restore %rbx
	.cfi_restore %r14
	.cfi_restore %rbp
.LBB2_8:                                # %omp.precond.end
	retq
.Lfunc_end2:
	.size	__omp_offloading_16_63dbd8c8__ZNSt3__113__par_backend17__omp_gpu_backend35__omp_parallel_for_simd_reduction_1B7v180000INS_6ranges9iota_viewIiiE10__iteratorEliiZ4mainE3$_0EET1_T_T0_S8_NS_4plusIT2_EET3_i_l341.omp_outlined.omp_outlined, .Lfunc_end2-__omp_offloading_16_63dbd8c8__ZNSt3__113__par_backend17__omp_gpu_backend35__omp_parallel_for_simd_reduction_1B7v180000INS_6ranges9iota_viewIiiE10__iteratorEliiZ4mainE3$_0EET1_T_T0_S8_NS_4plusIT2_EET3_i_l341.omp_outlined.omp_outlined
	.cfi_endproc
                                        # -- End function
	.p2align	4, 0x90                         # -- Begin function __omp_offloading_16_63dbd8c8__ZNSt3__113__par_backend17__omp_gpu_backend35__omp_parallel_for_simd_reduction_1B7v180000INS_6ranges9iota_viewIiiE10__iteratorEliiZ4mainE3$_0EET1_T_T0_S8_NS_4plusIT2_EET3_i_l341.omp_outlined.omp_outlined.omp.reduction.reduction_func
	.type	__omp_offloading_16_63dbd8c8__ZNSt3__113__par_backend17__omp_gpu_backend35__omp_parallel_for_simd_reduction_1B7v180000INS_6ranges9iota_viewIiiE10__iteratorEliiZ4mainE3$_0EET1_T_T0_S8_NS_4plusIT2_EET3_i_l341.omp_outlined.omp_outlined.omp.reduction.reduction_func,@function
__omp_offloading_16_63dbd8c8__ZNSt3__113__par_backend17__omp_gpu_backend35__omp_parallel_for_simd_reduction_1B7v180000INS_6ranges9iota_viewIiiE10__iteratorEliiZ4mainE3$_0EET1_T_T0_S8_NS_4plusIT2_EET3_i_l341.omp_outlined.omp_outlined.omp.reduction.reduction_func: # @"__omp_offloading_16_63dbd8c8__ZNSt3__113__par_backend17__omp_gpu_backend35__omp_parallel_for_simd_reduction_1B7v180000INS_6ranges9iota_viewIiiE10__iteratorEliiZ4mainE3$_0EET1_T_T0_S8_NS_4plusIT2_EET3_i_l341.omp_outlined.omp_outlined.omp.reduction.reduction_func"
	.cfi_startproc
# %bb.0:                                # %entry
	movq	(%rsi), %rax
	movq	(%rdi), %rcx
	movl	(%rax), %eax
	addl	%eax, (%rcx)
	retq
.Lfunc_end3:
	.size	__omp_offloading_16_63dbd8c8__ZNSt3__113__par_backend17__omp_gpu_backend35__omp_parallel_for_simd_reduction_1B7v180000INS_6ranges9iota_viewIiiE10__iteratorEliiZ4mainE3$_0EET1_T_T0_S8_NS_4plusIT2_EET3_i_l341.omp_outlined.omp_outlined.omp.reduction.reduction_func, .Lfunc_end3-__omp_offloading_16_63dbd8c8__ZNSt3__113__par_backend17__omp_gpu_backend35__omp_parallel_for_simd_reduction_1B7v180000INS_6ranges9iota_viewIiiE10__iteratorEliiZ4mainE3$_0EET1_T_T0_S8_NS_4plusIT2_EET3_i_l341.omp_outlined.omp_outlined.omp.reduction.reduction_func
	.cfi_endproc
                                        # -- End function
	.p2align	4, 0x90                         # -- Begin function __omp_offloading_16_63dbd8c8__ZNSt3__113__par_backend17__omp_gpu_backend35__omp_parallel_for_simd_reduction_1B7v180000INS_6ranges9iota_viewIiiE10__iteratorEliiZ4mainE3$_0EET1_T_T0_S8_NS_4plusIT2_EET3_i_l341.omp_outlined.omp.reduction.reduction_func
	.type	__omp_offloading_16_63dbd8c8__ZNSt3__113__par_backend17__omp_gpu_backend35__omp_parallel_for_simd_reduction_1B7v180000INS_6ranges9iota_viewIiiE10__iteratorEliiZ4mainE3$_0EET1_T_T0_S8_NS_4plusIT2_EET3_i_l341.omp_outlined.omp.reduction.reduction_func,@function
__omp_offloading_16_63dbd8c8__ZNSt3__113__par_backend17__omp_gpu_backend35__omp_parallel_for_simd_reduction_1B7v180000INS_6ranges9iota_viewIiiE10__iteratorEliiZ4mainE3$_0EET1_T_T0_S8_NS_4plusIT2_EET3_i_l341.omp_outlined.omp.reduction.reduction_func: # @"__omp_offloading_16_63dbd8c8__ZNSt3__113__par_backend17__omp_gpu_backend35__omp_parallel_for_simd_reduction_1B7v180000INS_6ranges9iota_viewIiiE10__iteratorEliiZ4mainE3$_0EET1_T_T0_S8_NS_4plusIT2_EET3_i_l341.omp_outlined.omp.reduction.reduction_func"
	.cfi_startproc
# %bb.0:                                # %entry
	movq	(%rsi), %rax
	movq	(%rdi), %rcx
	movl	(%rax), %eax
	addl	%eax, (%rcx)
	retq
.Lfunc_end4:
	.size	__omp_offloading_16_63dbd8c8__ZNSt3__113__par_backend17__omp_gpu_backend35__omp_parallel_for_simd_reduction_1B7v180000INS_6ranges9iota_viewIiiE10__iteratorEliiZ4mainE3$_0EET1_T_T0_S8_NS_4plusIT2_EET3_i_l341.omp_outlined.omp.reduction.reduction_func, .Lfunc_end4-__omp_offloading_16_63dbd8c8__ZNSt3__113__par_backend17__omp_gpu_backend35__omp_parallel_for_simd_reduction_1B7v180000INS_6ranges9iota_viewIiiE10__iteratorEliiZ4mainE3$_0EET1_T_T0_S8_NS_4plusIT2_EET3_i_l341.omp_outlined.omp.reduction.reduction_func
	.cfi_endproc
                                        # -- End function
	.p2align	4, 0x90                         # -- Begin function __omp_offloading_16_63dbd8c8__ZNSt3__113__par_backend17__omp_gpu_backend35__omp_parallel_for_simd_reduction_2B7v180000INS_6ranges9iota_viewIiiE10__iteratorES6_liiZ4mainE3$_1EET2_T_T0_T1_S8_NS_4plusIT3_EET4_i_l341.omp_outlined
	.type	__omp_offloading_16_63dbd8c8__ZNSt3__113__par_backend17__omp_gpu_backend35__omp_parallel_for_simd_reduction_2B7v180000INS_6ranges9iota_viewIiiE10__iteratorES6_liiZ4mainE3$_1EET2_T_T0_T1_S8_NS_4plusIT3_EET4_i_l341.omp_outlined,@function
__omp_offloading_16_63dbd8c8__ZNSt3__113__par_backend17__omp_gpu_backend35__omp_parallel_for_simd_reduction_2B7v180000INS_6ranges9iota_viewIiiE10__iteratorES6_liiZ4mainE3$_1EET2_T_T0_T1_S8_NS_4plusIT3_EET4_i_l341.omp_outlined: # @"__omp_offloading_16_63dbd8c8__ZNSt3__113__par_backend17__omp_gpu_backend35__omp_parallel_for_simd_reduction_2B7v180000INS_6ranges9iota_viewIiiE10__iteratorES6_liiZ4mainE3$_1EET2_T_T0_T1_S8_NS_4plusIT3_EET4_i_l341.omp_outlined"
	.cfi_startproc
# %bb.0:                                # %entry
	pushq	%rbp
	.cfi_def_cfa_offset 16
	pushq	%r15
	.cfi_def_cfa_offset 24
	pushq	%r14
	.cfi_def_cfa_offset 32
	pushq	%r13
	.cfi_def_cfa_offset 40
	pushq	%r12
	.cfi_def_cfa_offset 48
	pushq	%rbx
	.cfi_def_cfa_offset 56
	subq	$56, %rsp
	.cfi_def_cfa_offset 112
	.cfi_offset %rbx, -56
	.cfi_offset %r12, -48
	.cfi_offset %r13, -40
	.cfi_offset %r14, -32
	.cfi_offset %r15, -24
	.cfi_offset %rbp, -16
	movq	%rcx, %rbx
	movl	$0, (%rsp)
	movl	(%rdi), %ebp
	testq	%rdx, %rdx
	jle	.LBB5_5
# %bb.1:                                # %omp.precond.then
	movq	%r8, %r14
	movq	%rdx, %r15
	movq	%rbx, 40(%rsp)                  # 8-byte Spill
	leaq	-1(%rdx), %rbx
	movq	$0, 16(%rsp)
	movq	%rbx, 8(%rsp)
	movq	$1, 32(%rsp)
	movl	$0, 28(%rsp)
	subq	$8, %rsp
	.cfi_adjust_cfa_offset 8
	leaq	40(%rsp), %rax
	leaq	.L__unnamed_2(%rip), %rdi
	leaq	36(%rsp), %rcx
	leaq	24(%rsp), %r8
	leaq	16(%rsp), %r9
	movl	%ebp, 32(%rsp)                  # 4-byte Spill
	movl	%ebp, %esi
	movl	$92, %edx
	pushq	$1
	.cfi_adjust_cfa_offset 8
	pushq	$1
	.cfi_adjust_cfa_offset 8
	pushq	%rax
	.cfi_adjust_cfa_offset 8
	callq	__kmpc_for_static_init_8@PLT
	movq	%rbx, %r8
	addq	$32, %rsp
	.cfi_adjust_cfa_offset -32
	movq	8(%rsp), %rax
	cmpq	%rbx, %rax
	cmovlq	%rax, %r8
	movq	%r8, 8(%rsp)
	movq	16(%rsp), %rbx
	cmpq	%r8, %rbx
	jg	.LBB5_4
# %bb.2:                                # %omp.inner.for.body.preheader
	movq	%rsp, %rbp
	leaq	.L__unnamed_1(%rip), %r12
	leaq	__omp_offloading_16_63dbd8c8__ZNSt3__113__par_backend17__omp_gpu_backend35__omp_parallel_for_simd_reduction_2B7v180000INS_6ranges9iota_viewIiiE10__iteratorES6_liiZ4mainE3$_1EET2_T_T0_T1_S8_NS_4plusIT3_EET4_i_l341.omp_outlined.omp_outlined(%rip), %r13
	.p2align	4, 0x90
.LBB5_3:                                # %omp.inner.for.body
                                        # =>This Inner Loop Header: Depth=1
	movq	16(%rsp), %rcx
	subq	$8, %rsp
	.cfi_adjust_cfa_offset 8
	movq	%r12, %rdi
	movl	$8, %esi
	movq	%r13, %rdx
	movq	%r15, %r9
	xorl	%eax, %eax
	pushq	128(%rsp)
	.cfi_adjust_cfa_offset 8
	pushq	128(%rsp)
	.cfi_adjust_cfa_offset 8
	leaq	31(%rsp), %r10
	pushq	%r10
	.cfi_adjust_cfa_offset 8
	pushq	%r14
	.cfi_adjust_cfa_offset 8
	pushq	%rbp
	.cfi_adjust_cfa_offset 8
	callq	__kmpc_fork_call@PLT
	addq	$48, %rsp
	.cfi_adjust_cfa_offset -48
	addq	32(%rsp), %rbx
	movq	8(%rsp), %r8
	cmpq	%r8, %rbx
	jle	.LBB5_3
.LBB5_4:                                # %omp.loop.exit
	leaq	.L__unnamed_2(%rip), %rdi
	movl	24(%rsp), %ebp                  # 4-byte Reload
	movl	%ebp, %esi
	callq	__kmpc_for_static_fini@PLT
	movq	40(%rsp), %rbx                  # 8-byte Reload
.LBB5_5:                                # %omp.precond.end
	movq	%rsp, %rax
	movq	%rax, 48(%rsp)
	subq	$8, %rsp
	.cfi_adjust_cfa_offset 8
	movq	.gomp_critical_user_.reduction.var@GOTPCREL(%rip), %rax
	leaq	.L__unnamed_3(%rip), %rdi
	leaq	__omp_offloading_16_63dbd8c8__ZNSt3__113__par_backend17__omp_gpu_backend35__omp_parallel_for_simd_reduction_2B7v180000INS_6ranges9iota_viewIiiE10__iteratorES6_liiZ4mainE3$_1EET2_T_T0_T1_S8_NS_4plusIT3_EET4_i_l341.omp_outlined.omp.reduction.reduction_func(%rip), %r9
	leaq	56(%rsp), %r8
	movl	$8, %ecx
	movl	%ebp, %esi
	movl	$1, %edx
	pushq	%rax
	.cfi_adjust_cfa_offset 8
	callq	__kmpc_reduce_nowait@PLT
	addq	$16, %rsp
	.cfi_adjust_cfa_offset -16
	cmpl	$2, %eax
	je	.LBB5_8
# %bb.6:                                # %omp.precond.end
	cmpl	$1, %eax
	jne	.LBB5_9
# %bb.7:                                # %.omp.reduction.case1
	movl	(%rsp), %eax
	addl	%eax, (%rbx)
	leaq	.L__unnamed_3(%rip), %rdi
	movq	.gomp_critical_user_.reduction.var@GOTPCREL(%rip), %rdx
	movl	%ebp, %esi
	callq	__kmpc_end_reduce_nowait@PLT
	jmp	.LBB5_9
.LBB5_8:                                # %.omp.reduction.case2
	movl	(%rsp), %eax
	lock		addl	%eax, (%rbx)
.LBB5_9:                                # %.omp.reduction.default
	addq	$56, %rsp
	.cfi_def_cfa_offset 56
	popq	%rbx
	.cfi_def_cfa_offset 48
	popq	%r12
	.cfi_def_cfa_offset 40
	popq	%r13
	.cfi_def_cfa_offset 32
	popq	%r14
	.cfi_def_cfa_offset 24
	popq	%r15
	.cfi_def_cfa_offset 16
	popq	%rbp
	.cfi_def_cfa_offset 8
	retq
.Lfunc_end5:
	.size	__omp_offloading_16_63dbd8c8__ZNSt3__113__par_backend17__omp_gpu_backend35__omp_parallel_for_simd_reduction_2B7v180000INS_6ranges9iota_viewIiiE10__iteratorES6_liiZ4mainE3$_1EET2_T_T0_T1_S8_NS_4plusIT3_EET4_i_l341.omp_outlined, .Lfunc_end5-__omp_offloading_16_63dbd8c8__ZNSt3__113__par_backend17__omp_gpu_backend35__omp_parallel_for_simd_reduction_2B7v180000INS_6ranges9iota_viewIiiE10__iteratorES6_liiZ4mainE3$_1EET2_T_T0_T1_S8_NS_4plusIT3_EET4_i_l341.omp_outlined
	.cfi_endproc
                                        # -- End function
	.p2align	4, 0x90                         # -- Begin function __omp_offloading_16_63dbd8c8__ZNSt3__113__par_backend17__omp_gpu_backend35__omp_parallel_for_simd_reduction_2B7v180000INS_6ranges9iota_viewIiiE10__iteratorES6_liiZ4mainE3$_1EET2_T_T0_T1_S8_NS_4plusIT3_EET4_i_l341.omp_outlined.omp_outlined
	.type	__omp_offloading_16_63dbd8c8__ZNSt3__113__par_backend17__omp_gpu_backend35__omp_parallel_for_simd_reduction_2B7v180000INS_6ranges9iota_viewIiiE10__iteratorES6_liiZ4mainE3$_1EET2_T_T0_T1_S8_NS_4plusIT3_EET4_i_l341.omp_outlined.omp_outlined,@function
__omp_offloading_16_63dbd8c8__ZNSt3__113__par_backend17__omp_gpu_backend35__omp_parallel_for_simd_reduction_2B7v180000INS_6ranges9iota_viewIiiE10__iteratorES6_liiZ4mainE3$_1EET2_T_T0_T1_S8_NS_4plusIT3_EET4_i_l341.omp_outlined.omp_outlined: # @"__omp_offloading_16_63dbd8c8__ZNSt3__113__par_backend17__omp_gpu_backend35__omp_parallel_for_simd_reduction_2B7v180000INS_6ranges9iota_viewIiiE10__iteratorES6_liiZ4mainE3$_1EET2_T_T0_T1_S8_NS_4plusIT3_EET4_i_l341.omp_outlined.omp_outlined"
	.cfi_startproc
# %bb.0:                                # %entry
	testq	%r8, %r8
	jle	.LBB6_8
# %bb.1:                                # %omp.precond.then
	pushq	%rbp
	.cfi_def_cfa_offset 16
	pushq	%r14
	.cfi_def_cfa_offset 24
	pushq	%rbx
	.cfi_def_cfa_offset 32
	subq	$48, %rsp
	.cfi_def_cfa_offset 80
	.cfi_offset %rbx, -32
	.cfi_offset %r14, -24
	.cfi_offset %rbp, -16
	movq	%r9, %rbx
	movq	%r8, %r14
	decq	%r14
	movq	%rdx, 24(%rsp)
	movq	%rcx, 8(%rsp)
	movq	$1, 40(%rsp)
	movl	$0, 20(%rsp)
	movl	(%rdi), %ebp
	subq	$8, %rsp
	.cfi_adjust_cfa_offset 8
	leaq	48(%rsp), %rax
	leaq	.L__unnamed_4(%rip), %rdi
	leaq	28(%rsp), %rcx
	leaq	32(%rsp), %r8
	leaq	16(%rsp), %r9
	movl	%ebp, %esi
	movl	$34, %edx
	pushq	$1
	.cfi_adjust_cfa_offset 8
	pushq	$1
	.cfi_adjust_cfa_offset 8
	pushq	%rax
	.cfi_adjust_cfa_offset 8
	callq	__kmpc_for_static_init_8@PLT
	addq	$32, %rsp
	.cfi_adjust_cfa_offset -32
	movq	8(%rsp), %rax
	cmpq	%r14, %rax
	cmovlq	%rax, %r14
	movq	%r14, 8(%rsp)
	movq	24(%rsp), %rax
	xorl	%ecx, %ecx
	cmpq	%r14, %rax
	jg	.LBB6_3
# %bb.2:                                # %invoke.cont14.lr.ph
	movq	104(%rsp), %rcx
	movq	96(%rsp), %rdx
	movl	(%rdx), %edx
	movl	(%rcx), %ecx
	movl	%ecx, %esi
	subl	%edx, %esi
	subl	%eax, %r14d
	imull	%esi, %r14d
	addl	%ecx, %r14d
	subl	%edx, %r14d
	movl	%r14d, %ecx
.LBB6_3:                                # %omp.loop.exit
	movl	%ecx, 4(%rsp)
	leaq	.L__unnamed_2(%rip), %rdi
	movl	%ebp, %esi
	callq	__kmpc_for_static_fini@PLT
	leaq	4(%rsp), %rax
	movq	%rax, 32(%rsp)
	subq	$8, %rsp
	.cfi_adjust_cfa_offset 8
	movq	.gomp_critical_user_.reduction.var@GOTPCREL(%rip), %rax
	leaq	.L__unnamed_3(%rip), %rdi
	leaq	__omp_offloading_16_63dbd8c8__ZNSt3__113__par_backend17__omp_gpu_backend35__omp_parallel_for_simd_reduction_2B7v180000INS_6ranges9iota_viewIiiE10__iteratorES6_liiZ4mainE3$_1EET2_T_T0_T1_S8_NS_4plusIT3_EET4_i_l341.omp_outlined.omp_outlined.omp.reduction.reduction_func(%rip), %r9
	leaq	40(%rsp), %r8
	movl	$8, %ecx
	movl	%ebp, %esi
	movl	$1, %edx
	pushq	%rax
	.cfi_adjust_cfa_offset 8
	callq	__kmpc_reduce_nowait@PLT
	addq	$16, %rsp
	.cfi_adjust_cfa_offset -16
	cmpl	$2, %eax
	je	.LBB6_6
# %bb.4:                                # %omp.loop.exit
	cmpl	$1, %eax
	jne	.LBB6_7
# %bb.5:                                # %.omp.reduction.case1
	movl	4(%rsp), %eax
	addl	%eax, (%rbx)
	leaq	.L__unnamed_3(%rip), %rdi
	movq	.gomp_critical_user_.reduction.var@GOTPCREL(%rip), %rdx
	movl	%ebp, %esi
	callq	__kmpc_end_reduce_nowait@PLT
	jmp	.LBB6_7
.LBB6_6:                                # %.omp.reduction.case2
	movl	4(%rsp), %eax
	lock		addl	%eax, (%rbx)
.LBB6_7:                                # %.omp.reduction.default
	addq	$48, %rsp
	.cfi_def_cfa_offset 32
	popq	%rbx
	.cfi_def_cfa_offset 24
	popq	%r14
	.cfi_def_cfa_offset 16
	popq	%rbp
	.cfi_def_cfa_offset 8
	.cfi_restore %rbx
	.cfi_restore %r14
	.cfi_restore %rbp
.LBB6_8:                                # %omp.precond.end
	retq
.Lfunc_end6:
	.size	__omp_offloading_16_63dbd8c8__ZNSt3__113__par_backend17__omp_gpu_backend35__omp_parallel_for_simd_reduction_2B7v180000INS_6ranges9iota_viewIiiE10__iteratorES6_liiZ4mainE3$_1EET2_T_T0_T1_S8_NS_4plusIT3_EET4_i_l341.omp_outlined.omp_outlined, .Lfunc_end6-__omp_offloading_16_63dbd8c8__ZNSt3__113__par_backend17__omp_gpu_backend35__omp_parallel_for_simd_reduction_2B7v180000INS_6ranges9iota_viewIiiE10__iteratorES6_liiZ4mainE3$_1EET2_T_T0_T1_S8_NS_4plusIT3_EET4_i_l341.omp_outlined.omp_outlined
	.cfi_endproc
                                        # -- End function
	.p2align	4, 0x90                         # -- Begin function __omp_offloading_16_63dbd8c8__ZNSt3__113__par_backend17__omp_gpu_backend35__omp_parallel_for_simd_reduction_2B7v180000INS_6ranges9iota_viewIiiE10__iteratorES6_liiZ4mainE3$_1EET2_T_T0_T1_S8_NS_4plusIT3_EET4_i_l341.omp_outlined.omp_outlined.omp.reduction.reduction_func
	.type	__omp_offloading_16_63dbd8c8__ZNSt3__113__par_backend17__omp_gpu_backend35__omp_parallel_for_simd_reduction_2B7v180000INS_6ranges9iota_viewIiiE10__iteratorES6_liiZ4mainE3$_1EET2_T_T0_T1_S8_NS_4plusIT3_EET4_i_l341.omp_outlined.omp_outlined.omp.reduction.reduction_func,@function
__omp_offloading_16_63dbd8c8__ZNSt3__113__par_backend17__omp_gpu_backend35__omp_parallel_for_simd_reduction_2B7v180000INS_6ranges9iota_viewIiiE10__iteratorES6_liiZ4mainE3$_1EET2_T_T0_T1_S8_NS_4plusIT3_EET4_i_l341.omp_outlined.omp_outlined.omp.reduction.reduction_func: # @"__omp_offloading_16_63dbd8c8__ZNSt3__113__par_backend17__omp_gpu_backend35__omp_parallel_for_simd_reduction_2B7v180000INS_6ranges9iota_viewIiiE10__iteratorES6_liiZ4mainE3$_1EET2_T_T0_T1_S8_NS_4plusIT3_EET4_i_l341.omp_outlined.omp_outlined.omp.reduction.reduction_func"
	.cfi_startproc
# %bb.0:                                # %entry
	movq	(%rsi), %rax
	movq	(%rdi), %rcx
	movl	(%rax), %eax
	addl	%eax, (%rcx)
	retq
.Lfunc_end7:
	.size	__omp_offloading_16_63dbd8c8__ZNSt3__113__par_backend17__omp_gpu_backend35__omp_parallel_for_simd_reduction_2B7v180000INS_6ranges9iota_viewIiiE10__iteratorES6_liiZ4mainE3$_1EET2_T_T0_T1_S8_NS_4plusIT3_EET4_i_l341.omp_outlined.omp_outlined.omp.reduction.reduction_func, .Lfunc_end7-__omp_offloading_16_63dbd8c8__ZNSt3__113__par_backend17__omp_gpu_backend35__omp_parallel_for_simd_reduction_2B7v180000INS_6ranges9iota_viewIiiE10__iteratorES6_liiZ4mainE3$_1EET2_T_T0_T1_S8_NS_4plusIT3_EET4_i_l341.omp_outlined.omp_outlined.omp.reduction.reduction_func
	.cfi_endproc
                                        # -- End function
	.p2align	4, 0x90                         # -- Begin function __omp_offloading_16_63dbd8c8__ZNSt3__113__par_backend17__omp_gpu_backend35__omp_parallel_for_simd_reduction_2B7v180000INS_6ranges9iota_viewIiiE10__iteratorES6_liiZ4mainE3$_1EET2_T_T0_T1_S8_NS_4plusIT3_EET4_i_l341.omp_outlined.omp.reduction.reduction_func
	.type	__omp_offloading_16_63dbd8c8__ZNSt3__113__par_backend17__omp_gpu_backend35__omp_parallel_for_simd_reduction_2B7v180000INS_6ranges9iota_viewIiiE10__iteratorES6_liiZ4mainE3$_1EET2_T_T0_T1_S8_NS_4plusIT3_EET4_i_l341.omp_outlined.omp.reduction.reduction_func,@function
__omp_offloading_16_63dbd8c8__ZNSt3__113__par_backend17__omp_gpu_backend35__omp_parallel_for_simd_reduction_2B7v180000INS_6ranges9iota_viewIiiE10__iteratorES6_liiZ4mainE3$_1EET2_T_T0_T1_S8_NS_4plusIT3_EET4_i_l341.omp_outlined.omp.reduction.reduction_func: # @"__omp_offloading_16_63dbd8c8__ZNSt3__113__par_backend17__omp_gpu_backend35__omp_parallel_for_simd_reduction_2B7v180000INS_6ranges9iota_viewIiiE10__iteratorES6_liiZ4mainE3$_1EET2_T_T0_T1_S8_NS_4plusIT3_EET4_i_l341.omp_outlined.omp.reduction.reduction_func"
	.cfi_startproc
# %bb.0:                                # %entry
	movq	(%rsi), %rax
	movq	(%rdi), %rcx
	movl	(%rax), %eax
	addl	%eax, (%rcx)
	retq
.Lfunc_end8:
	.size	__omp_offloading_16_63dbd8c8__ZNSt3__113__par_backend17__omp_gpu_backend35__omp_parallel_for_simd_reduction_2B7v180000INS_6ranges9iota_viewIiiE10__iteratorES6_liiZ4mainE3$_1EET2_T_T0_T1_S8_NS_4plusIT3_EET4_i_l341.omp_outlined.omp.reduction.reduction_func, .Lfunc_end8-__omp_offloading_16_63dbd8c8__ZNSt3__113__par_backend17__omp_gpu_backend35__omp_parallel_for_simd_reduction_2B7v180000INS_6ranges9iota_viewIiiE10__iteratorES6_liiZ4mainE3$_1EET2_T_T0_T1_S8_NS_4plusIT3_EET4_i_l341.omp_outlined.omp.reduction.reduction_func
	.cfi_endproc
                                        # -- End function
	.section	.text.startup,"ax",@progbits
	.p2align	4, 0x90                         # -- Begin function .omp_offloading.requires_reg
	.type	.omp_offloading.requires_reg,@function
.omp_offloading.requires_reg:           # @.omp_offloading.requires_reg
	.cfi_startproc
# %bb.0:                                # %entry
	movl	$1, %edi
	jmp	__tgt_register_requires@PLT     # TAILCALL
.Lfunc_end9:
	.size	.omp_offloading.requires_reg, .Lfunc_end9-.omp_offloading.requires_reg
	.cfi_endproc
                                        # -- End function
	.type	.L.str,@object                  # @.str
	.section	.rodata.str1.1,"aMS",@progbits,1
.L.str:
	.asciz	"sum == 500500"
	.size	.L.str, 14

	.type	.L.str.1,@object                # @.str.1
.L.str.1:
	.asciz	"src/transform_reduce/std_iota_std_vector.cpp"
	.size	.L.str.1, 45

	.type	.L__PRETTY_FUNCTION__.main,@object # @__PRETTY_FUNCTION__.main
.L__PRETTY_FUNCTION__.main:
	.asciz	"int main()"
	.size	.L__PRETTY_FUNCTION__.main, 11

	.type	.L.str.2,@object                # @.str.2
.L.str.2:
	.asciz	"sum == size"
	.size	.L.str.2, 12

	.type	.L__unnamed_5,@object           # @0
.L__unnamed_5:
	.asciz	";unknown;unknown;0;0;;"
	.size	.L__unnamed_5, 23

	.type	.L__unnamed_2,@object           # @1
	.section	.data.rel.ro,"aw",@progbits
	.p2align	3, 0x0
.L__unnamed_2:
	.long	0                               # 0x0
	.long	2050                            # 0x802
	.long	0                               # 0x0
	.long	22                              # 0x16
	.quad	.L__unnamed_5
	.size	.L__unnamed_2, 24

	.type	.L__unnamed_4,@object           # @2
	.p2align	3, 0x0
.L__unnamed_4:
	.long	0                               # 0x0
	.long	514                             # 0x202
	.long	0                               # 0x0
	.long	22                              # 0x16
	.quad	.L__unnamed_5
	.size	.L__unnamed_4, 24

	.type	.gomp_critical_user_.reduction.var,@object # @.gomp_critical_user_.reduction.var
	.comm	.gomp_critical_user_.reduction.var,32,8
	.type	.L__unnamed_3,@object           # @3
	.p2align	3, 0x0
.L__unnamed_3:
	.long	0                               # 0x0
	.long	18                              # 0x12
	.long	0                               # 0x0
	.long	22                              # 0x16
	.quad	.L__unnamed_5
	.size	.L__unnamed_3, 24

	.type	.L__unnamed_1,@object           # @4
	.p2align	3, 0x0
.L__unnamed_1:
	.long	0                               # 0x0
	.long	2                               # 0x2
	.long	0                               # 0x0
	.long	22                              # 0x16
	.quad	.L__unnamed_5
	.size	.L__unnamed_1, 24

	.type	.__omp_offloading_16_63dbd8c8__ZNSt3__113__par_backend17__omp_gpu_backend35__omp_parallel_for_simd_reduction_1B7v180000INS_6ranges9iota_viewIiiE10__iteratorEliiZ4mainE3$_0EET1_T_T0_S8_NS_4plusIT2_EET3_i_l341.region_id,@object # @".__omp_offloading_16_63dbd8c8__ZNSt3__113__par_backend17__omp_gpu_backend35__omp_parallel_for_simd_reduction_1B7v180000INS_6ranges9iota_viewIiiE10__iteratorEliiZ4mainE3$_0EET1_T_T0_S8_NS_4plusIT2_EET3_i_l341.region_id"
	.section	.rodata,"a",@progbits
	.weak	.__omp_offloading_16_63dbd8c8__ZNSt3__113__par_backend17__omp_gpu_backend35__omp_parallel_for_simd_reduction_1B7v180000INS_6ranges9iota_viewIiiE10__iteratorEliiZ4mainE3$_0EET1_T_T0_S8_NS_4plusIT2_EET3_i_l341.region_id
.__omp_offloading_16_63dbd8c8__ZNSt3__113__par_backend17__omp_gpu_backend35__omp_parallel_for_simd_reduction_1B7v180000INS_6ranges9iota_viewIiiE10__iteratorEliiZ4mainE3$_0EET1_T_T0_S8_NS_4plusIT2_EET3_i_l341.region_id:
	.byte	0                               # 0x0
	.size	.__omp_offloading_16_63dbd8c8__ZNSt3__113__par_backend17__omp_gpu_backend35__omp_parallel_for_simd_reduction_1B7v180000INS_6ranges9iota_viewIiiE10__iteratorEliiZ4mainE3$_0EET1_T_T0_S8_NS_4plusIT2_EET3_i_l341.region_id, 1

	.type	.L.offload_sizes,@object        # @.offload_sizes
	.p2align	4, 0x0
.L.offload_sizes:
	.quad	8                               # 0x8
	.quad	4                               # 0x4
	.quad	1                               # 0x1
	.quad	1                               # 0x1
	.quad	4                               # 0x4
	.size	.L.offload_sizes, 40

	.type	.L.offload_maptypes,@object     # @.offload_maptypes
	.p2align	4, 0x0
.L.offload_maptypes:
	.quad	800                             # 0x320
	.quad	547                             # 0x223
	.quad	547                             # 0x223
	.quad	673                             # 0x2a1
	.quad	37                              # 0x25
	.size	.L.offload_maptypes, 40

	.type	.__omp_offloading_16_63dbd8c8__ZNSt3__113__par_backend17__omp_gpu_backend35__omp_parallel_for_simd_reduction_2B7v180000INS_6ranges9iota_viewIiiE10__iteratorES6_liiZ4mainE3$_1EET2_T_T0_T1_S8_NS_4plusIT3_EET4_i_l341.region_id,@object # @".__omp_offloading_16_63dbd8c8__ZNSt3__113__par_backend17__omp_gpu_backend35__omp_parallel_for_simd_reduction_2B7v180000INS_6ranges9iota_viewIiiE10__iteratorES6_liiZ4mainE3$_1EET2_T_T0_T1_S8_NS_4plusIT3_EET4_i_l341.region_id"
	.weak	.__omp_offloading_16_63dbd8c8__ZNSt3__113__par_backend17__omp_gpu_backend35__omp_parallel_for_simd_reduction_2B7v180000INS_6ranges9iota_viewIiiE10__iteratorES6_liiZ4mainE3$_1EET2_T_T0_T1_S8_NS_4plusIT3_EET4_i_l341.region_id
.__omp_offloading_16_63dbd8c8__ZNSt3__113__par_backend17__omp_gpu_backend35__omp_parallel_for_simd_reduction_2B7v180000INS_6ranges9iota_viewIiiE10__iteratorES6_liiZ4mainE3$_1EET2_T_T0_T1_S8_NS_4plusIT3_EET4_i_l341.region_id:
	.byte	0                               # 0x0
	.size	.__omp_offloading_16_63dbd8c8__ZNSt3__113__par_backend17__omp_gpu_backend35__omp_parallel_for_simd_reduction_2B7v180000INS_6ranges9iota_viewIiiE10__iteratorES6_liiZ4mainE3$_1EET2_T_T0_T1_S8_NS_4plusIT3_EET4_i_l341.region_id, 1

	.type	.L.offload_sizes.3,@object      # @.offload_sizes.3
	.p2align	4, 0x0
.L.offload_sizes.3:
	.quad	8                               # 0x8
	.quad	4                               # 0x4
	.quad	1                               # 0x1
	.quad	1                               # 0x1
	.quad	4                               # 0x4
	.quad	4                               # 0x4
	.size	.L.offload_sizes.3, 48

	.type	.L.offload_maptypes.4,@object   # @.offload_maptypes.4
	.p2align	4, 0x0
.L.offload_maptypes.4:
	.quad	800                             # 0x320
	.quad	547                             # 0x223
	.quad	547                             # 0x223
	.quad	673                             # 0x2a1
	.quad	37                              # 0x25
	.quad	37                              # 0x25
	.size	.L.offload_maptypes.4, 48

	.type	.omp_offloading.entry_name,@object # @.omp_offloading.entry_name
	.section	.rodata.str1.16,"aMS",@progbits,1
	.p2align	4, 0x0
.omp_offloading.entry_name:
	.asciz	"__omp_offloading_16_63dbd8c8__ZNSt3__113__par_backend17__omp_gpu_backend35__omp_parallel_for_simd_reduction_1B7v180000INS_6ranges9iota_viewIiiE10__iteratorEliiZ4mainE3$_0EET1_T_T0_S8_NS_4plusIT2_EET3_i_l341"
	.size	.omp_offloading.entry_name, 207

	.type	.omp_offloading.entry.__omp_offloading_16_63dbd8c8__ZNSt3__113__par_backend17__omp_gpu_backend35__omp_parallel_for_simd_reduction_1B7v180000INS_6ranges9iota_viewIiiE10__iteratorEliiZ4mainE3$_0EET1_T_T0_S8_NS_4plusIT2_EET3_i_l341,@object # @".omp_offloading.entry.__omp_offloading_16_63dbd8c8__ZNSt3__113__par_backend17__omp_gpu_backend35__omp_parallel_for_simd_reduction_1B7v180000INS_6ranges9iota_viewIiiE10__iteratorEliiZ4mainE3$_0EET1_T_T0_S8_NS_4plusIT2_EET3_i_l341"
	.section	omp_offloading_entries,"aw",@progbits
	.weak	.omp_offloading.entry.__omp_offloading_16_63dbd8c8__ZNSt3__113__par_backend17__omp_gpu_backend35__omp_parallel_for_simd_reduction_1B7v180000INS_6ranges9iota_viewIiiE10__iteratorEliiZ4mainE3$_0EET1_T_T0_S8_NS_4plusIT2_EET3_i_l341
.omp_offloading.entry.__omp_offloading_16_63dbd8c8__ZNSt3__113__par_backend17__omp_gpu_backend35__omp_parallel_for_simd_reduction_1B7v180000INS_6ranges9iota_viewIiiE10__iteratorEliiZ4mainE3$_0EET1_T_T0_S8_NS_4plusIT2_EET3_i_l341:
	.quad	.__omp_offloading_16_63dbd8c8__ZNSt3__113__par_backend17__omp_gpu_backend35__omp_parallel_for_simd_reduction_1B7v180000INS_6ranges9iota_viewIiiE10__iteratorEliiZ4mainE3$_0EET1_T_T0_S8_NS_4plusIT2_EET3_i_l341.region_id
	.quad	.omp_offloading.entry_name
	.quad	0                               # 0x0
	.long	0                               # 0x0
	.long	0                               # 0x0
	.size	.omp_offloading.entry.__omp_offloading_16_63dbd8c8__ZNSt3__113__par_backend17__omp_gpu_backend35__omp_parallel_for_simd_reduction_1B7v180000INS_6ranges9iota_viewIiiE10__iteratorEliiZ4mainE3$_0EET1_T_T0_S8_NS_4plusIT2_EET3_i_l341, 32

	.type	.omp_offloading.entry_name.5,@object # @.omp_offloading.entry_name.5
	.section	.rodata.str1.16,"aMS",@progbits,1
	.p2align	4, 0x0
.omp_offloading.entry_name.5:
	.asciz	"__omp_offloading_16_63dbd8c8__ZNSt3__113__par_backend17__omp_gpu_backend35__omp_parallel_for_simd_reduction_2B7v180000INS_6ranges9iota_viewIiiE10__iteratorES6_liiZ4mainE3$_1EET2_T_T0_T1_S8_NS_4plusIT3_EET4_i_l341"
	.size	.omp_offloading.entry_name.5, 213

	.type	.omp_offloading.entry.__omp_offloading_16_63dbd8c8__ZNSt3__113__par_backend17__omp_gpu_backend35__omp_parallel_for_simd_reduction_2B7v180000INS_6ranges9iota_viewIiiE10__iteratorES6_liiZ4mainE3$_1EET2_T_T0_T1_S8_NS_4plusIT3_EET4_i_l341,@object # @".omp_offloading.entry.__omp_offloading_16_63dbd8c8__ZNSt3__113__par_backend17__omp_gpu_backend35__omp_parallel_for_simd_reduction_2B7v180000INS_6ranges9iota_viewIiiE10__iteratorES6_liiZ4mainE3$_1EET2_T_T0_T1_S8_NS_4plusIT3_EET4_i_l341"
	.section	omp_offloading_entries,"aw",@progbits
	.weak	.omp_offloading.entry.__omp_offloading_16_63dbd8c8__ZNSt3__113__par_backend17__omp_gpu_backend35__omp_parallel_for_simd_reduction_2B7v180000INS_6ranges9iota_viewIiiE10__iteratorES6_liiZ4mainE3$_1EET2_T_T0_T1_S8_NS_4plusIT3_EET4_i_l341
.omp_offloading.entry.__omp_offloading_16_63dbd8c8__ZNSt3__113__par_backend17__omp_gpu_backend35__omp_parallel_for_simd_reduction_2B7v180000INS_6ranges9iota_viewIiiE10__iteratorES6_liiZ4mainE3$_1EET2_T_T0_T1_S8_NS_4plusIT3_EET4_i_l341:
	.quad	.__omp_offloading_16_63dbd8c8__ZNSt3__113__par_backend17__omp_gpu_backend35__omp_parallel_for_simd_reduction_2B7v180000INS_6ranges9iota_viewIiiE10__iteratorES6_liiZ4mainE3$_1EET2_T_T0_T1_S8_NS_4plusIT3_EET4_i_l341.region_id
	.quad	.omp_offloading.entry_name.5
	.quad	0                               # 0x0
	.long	0                               # 0x0
	.long	0                               # 0x0
	.size	.omp_offloading.entry.__omp_offloading_16_63dbd8c8__ZNSt3__113__par_backend17__omp_gpu_backend35__omp_parallel_for_simd_reduction_2B7v180000INS_6ranges9iota_viewIiiE10__iteratorES6_liiZ4mainE3$_1EET2_T_T0_T1_S8_NS_4plusIT3_EET4_i_l341, 32

	.section	.init_array.0,"aw",@init_array
	.p2align	3, 0x0
	.quad	.omp_offloading.requires_reg
	.type	.Lllvm.embedded.object,@object  # @llvm.embedded.object
	.section	.llvm.offloading,"e",@llvm_offloading
	.p2align	3, 0x0
.Lllvm.embedded.object:
	.asciz	"\020\377\020\255\001\000\000\000\230U\000\000\000\000\000\000 \000\000\000\000\000\000\000(\000\000\000\000\000\000\000\002\000\001\000\000\000\000\000H\000\000\000\000\000\000\000\002\000\000\000\000\000\000\000\220\000\000\000\000\000\000\000\bU\000\000\000\000\000\000i\000\000\000\000\000\000\000\207\000\000\000\000\000\000\000n\000\000\000\000\000\000\000u\000\000\000\000\000\000\000\000arch\000triple\000amdgcn-amd-amdhsa\000gfx906\000\000\000BC\300\3365\024\000\000\005\000\000\000b\f0$MY\276f\315\373\264O\033\310$D\0012\005\000!\f\000\000\212\020\000\000\013\002!\000\002\000\000\000\026\000\000\000\007\201#\221A\310\004I\006\02029\222\001\204\f%\005\b\031\036\004\213b\200\030E\002B\222\013B\304\0202\0248\b\030K\n2b\210Hp\304!#D\022\207\214\020A\222\002d\310\b\261\024 CF\210 \311\0012b\204\030*(*\2201|\260\\\221 \306\310\000\000\000\211 \000\000`\000\000\000\"f\004\020\262B\202\211\021RB\202\211\221q\302PH\n\t&F\306\005Bb&\b\332`\262 \230#\000\003\232#@\362b8G\232\"J\230|d \232\351\237P\021\004A \314\021@\267ISD\t\223\337a\r\300 \202\327TH\3444\f\321L-\206\002\343\302@\232\"J\230|\316i\n\304\240\"`B\234\306k*$r\032\206h\246\026C\3030\f\247ISD\t\223O\022QC,^S!\221\3230D3\265\030\032\020A\230,\030\022(H@\204\3408i\212(a\362\177cq\002`A2b\370\027G\000\026\351\2370\02403\225A=\270C:\274\203;\270\301/\274\003<\224\203;\264\003<\374\002=\224C8\264\303<\374\202<\224\0039\324\3038\320C:\274\203;\374\002=\344\003<\224\303/\220\301/\240\240\231, 2@\030\001\230#\000\205bD\222 \bB\021\002a\262\240(C$UE\211\204 \020\004A\220\244\242D\202 I\222 \bB\031\"!(E$\030\206Q\202\240\020A`\030\005\t\204 \220\004A(B\024\024%\022\202 \b\004A\220\n\021\t\201P\230@\b\204@\020\004A\020\204\022D\345\210$A\020\004\241,\221 H\222$\b\202 \224A\222\244\201\200S\204\005\220$\037h\234\006\005C\036\bs\004\301\024\3001\302\002H\222\0174N\343\323(\030\022A\000\000\000Q\030\000\000(\003\000\000\033\320%\370\377\377\377\377\001\020\0008\000$\"\034\332\201\034\316\001\036\352\241\r\314\201\035\302\201\036\332\340\036\336A\036\326\241\r\316A\036\336\241\036\340\241\r\346!\035\364\241\034\2008`\0039\250\003;\000\206u(\007yp\207r`\007\200p\207wh\003z\220\207p\200\007xH\007w8\2076h\207p\240\007t\000\350A\036\352\241\034\000\342\035\332\001\036~\201\036\302A\036\316\241\034\350\341\027\350\001\035\344\241\034\302\201\034~\201\035\322\241\035\322\201\036\0009\250\003;\000\210y\240\207p\030\207uh\003x\220\207w\240\207r\030\007zx\007yh\003q\250\007s0\207r\220\2076\230\207t\320\207r\000\360\000 \350!\034\344\341\034\312\201\036\332`\034\340\241\036\200s0\007|\310\0038\260\003\200\240\207p\220\207s(\007zh\003s(\207p\240\207z\220\207r\230\007`\r\342\300\016\332@\034\322\201\036\332 \035\334a\036\350a\036\330`\r\306!\035\332 \035\334a\036\350a\036\330`\r\310\201\035\332 \035\334a\036\350a\036\330`\r\310\341\035\350!\016\332 \035\334a\036\350a\036\330`\r\310\341\035\350!\016\340\240\r\322\301\035\346\201\036\346\201\r\326\200\034\336\201\036\344\240\r\322\301\035\346\201\036\346\201\r\326\200\034\336\201\036\356\240\r\322\301\035\346\201\036\346\201\r\326\200\034\340\001\036\330`\r\316\301\034\360\001\017\332 \035\334a\036\350a\036\330`\r\316\301\034\360!\017\332 \035\334a\036\350a\036\330`\r\346\241\r\332\241\034\332A\036\312!\034\330\201\036\322\241\035\312\201\r\326`\036\332\240\035\312\241\035\350!\035\332\241\034\332 \035\334a\036\350\201\r\326\340\036\302\301\036\312\301\034\344\341\035\334\201\036\346!\035\364\241\034\354\200\016\000\242\036\334!\035\314\341\035\344\241\035\332\340\036\336A\036\326\241\r\316A\036\336\241\036\340\241\r\346!\035\364\241\034\000z\220\207z(\007`\003!\004\000)l`\006\001 \005\340\f\202\200\b\322\200\330\300\020\003@\n\300\031\004A\020\244A\260\201)\b\200\024\2003\b\202 H\203`\003c\024\000)\000g\020\004D\220\006\304\206\350\370\377\377\377\377\0010\005\340\024\000?\000\376\000\220\200>\bla\330@ \001\300\007\033\210D\000\226\r\204\362\377\377\377\377\003 m\020\221\345\377\377\377\377\007@\000\340\000\220\bwx\2076\240\007y\b\007x\200\207tp\207sh\203v\b\007z@\007\200\036\344\241\036\312\001 \346\201\036\302a\034\326\241\r\340A\036\336\201\036\312a\034\350\341\035\344\241\r\304\241\036\314\301\034\312A\036\332`\036\322A\037\312\001\300\003\200\240\207p\220\207s(\007zh\203q\200\207z\000\316\301\034\360!\017\340\300\016\000\202\036\302A\036\316\241\034\350\241\r\314\241\034\302\201\036\352A\036\312a\036\2005\210\003;h\003qH\007zh\203tp\207y\240\207y`\2035\030\207th\203tp\207y\240\207y`\2035 \007vh\203tp\207y\240\207y`\2035 \207w\240\2078h\203tp\207y\240\207y`\2035 \207w\240\2078\200\2036H\007w\230\007z\230\0076X\003rx\007z\220\2036H\007w\230\007z\230\0076X\003rx\007z\270\2036H\007w\230\007z\230\0076X\003r\200\007x`\20358\007s\300\007<h\203tp\207y\240\207y`\20358\007s\300\207<h\203tp\207y\240\207y`\2035\230\2076h\207rh\007y(\207p`\007zH\207v(\0076X\203yh\203v(\207v\240\207th\207rh\203tp\207y\240\0076X\203{\b\007{(\007s\220\207wp\007z\230\207t\320\207r\260\003:\0006(L\000$\300\002\220\002Pm@\032\001H\200\005\2406\020\316\000\220\302\006\342!\000R\330@@\005@\n\033\234\310\000\026\200\024\2003\b\002\"H\003b\303\"\035\300\002\234\001@\005A\260a\231\020`\001\316\000\240\202 \330\000Q\t\260\000\244\000\234\001P\005\001\021\244\001\261\001D\252\377\377\377\377\037\0008\000$\302\035\336\241\r\350A\036\302\001\036\340!\035\334\341\034\332\240\035\302\201\036\320\001\240\007y\250\207r\000\210y\240\207p\030\207uh\003x\220\207w\240\207r\030\007zx\007yh\003q\250\007s0\207r\220\2076\230\207t\320\207r\000\360\000 \350!\034\344\341\034\312\201\036\332`\034\340\241\036\200s0\007|\310\0038\260\003\200\240\207p\220\207s(\007zh\003s(\207p\240\207z\220\207r\230\007`\r\342\300\016\332@\034\322\201\036\332 \035\334a\036\350a\036\330`\r\306!\035\332 \035\334a\036\350a\036\330`\r\310\201\035\332 \035\334a\036\350a\036\330`\r\310\341\035\350!\016\332 \035\334a\036\350a\036\330`\r\310\341\035\350!\016\340\240\r\322\301\035\346\201\036\346\201\r\326\200\034\336\201\036\344\240\r\322\301\035\346\201\036\346\201\r\326\200\034\336\201\036\356\240\r\322\301\035\346\201\036\346\201\r\326\200\034\340\001\036\330`\r\316\301\034\360\001\017\332 \035\334a\036\350a\036\330`\r\316\301\034\360!\017\332 \035\334a\036\350a\036\330`\r\346\241\r\332\241\034\332A\036\312!\034\330\201\036\322\241\035\312\201\r\326`\036\332\240\035\312\241\035\350!\035\332\241\034\332 \035\334a\036\350\201\r\326\340\036\302\301\036\312\301\034\344\341\035\334\201\036\346!\035\364\241\034\354\200\016\200\r\210\025\000\013@\n@\265\301\270\004\200\024\000l\203\201\r\000)\000\330\006##\000R\000\260\r\"\242\375\377\377\377\377\000\254\001\000\007\200D\270\303;\264\001=\310C8\300\003<\244\203;\234C\033\264C8\320\003:\000\364 \017\365P\016\0001\017\364\020\016\343\260\016m\000\017\362\360\016\364P\016\343@\017\357 \017m \016\365`\016\346P\016\362\320\006\363\220\016\372P\016\000\036\000\004=\204\203<\234C9\320C\033\214\003<\324\003p\016\346\200\017y\000\007v\000\020\364\020\016\362p\016\345@\017m`\016\345\020\016\364P\017\362P\016\363\000\254A\034\330A\033\210C:\320C\033\244\203;\314\003=\314\003\033\254\3018\244C\033\244\203;\314\003=\314\003\033\254\0019\260C\033\244\203;\314\003=\314\003\033\254\0019\274\003=\304A\033\244\203;\314\003=\314\003\033\254\0019\274\003=\304\001\034\264A:\270\303<\320\303<\260\301\032\220\303;\320\203\034\264A:\270\303<\320\303<\260\301\032\220\303;\320\303\035\264A:\270\303<\320\303<\260\301\032\220\003<\300\003\033\254\3019\230\003>\340A\033\244\203;\314\003=\314\003\033\254\3019\230\003>\344A\033\244\203;\314\003=\314\003\033\254\301<\264A;\224C;\310C9\204\003;\320C:\264C9\260\301\032\314C\033\264C9\264\003=\244C;\224C\033\244\203;\314\003=\260\301\032\334C8\330C9\230\203<\274\203;\320\303<\244\203>\224\203\035\320\001\260\201\330\004\200\0246\030\334\377\377\377\377\017\300\032\000\322\006\242\373\377\377\377\377\001\0206\254\210\367\377\377\377\377\003`\n\200\037\000p\000\374\001 \001}\020\330\302D\270\303;\264\001=\310C8\300\003<\244\203;\234C\033\264C8\320\003:\000\364 \017\365P\016\0001\017\364\020\016\343\260\016m\000\017\362\360\016\364P\016\343@\017\357 \017m \016\365`\016\346P\016\362\320\006\363\220\016\372P\016\000\036\000\004=\204\203<\234C9\320C\033\214\003<\324\003p\016\346\200\017y\000\007v\000\020\364\020\016\362p\016\345@\017m`\016\345\020\016\364P\017\362P\016\363\000\254A\034\330A\033\210C:\320C\033\244\203;\314\003=\314\003\033\254\3018\244C\033\244\203;\314\003=\314\003\033\254\0019\260C\033\244\203;\314\003=\314\003\033\254\0019\274\003=\304A\033\244\203;\314\003=\314\003\033\254\0019\274\003=\304\001\034\264A:\270\303<\320\303<\260\301\032\220\303;\320\203\034\264A:\270\303<\320\303<\260\301\032\220\303;\320\303\035\264A:\270\303<\320\303<\260\301\032\220\003<\300\003\033\254\3019\230\003>\340A\033\244\203;\314\003=\314\003\033\254\3019\230\003>\344A\033\244\203;\314\003=\314\003\033\254\301<\264A;\224C;\310C9\204\003;\320C:\264C9\260\301\032\314C\033\264C9\264\003=\244C;\224C\033\244\203;\314\003=\260\301\032\334C8\330C9\230\203<\274\203;\320\303<\244\203>\224\203\035\320\001\260\001\371\002`\001H\001\240\203\r\b\030\f\300\002\220\002Pm0\302 \000\026\200\0246\254\210\030\374\377\377\377\377\000\230\002\340\007\000\034\000\177\000H@\037\004\2660\006\204;\274C\033\320\203<\204\003<\300C:\270\3039\264A;\204\003=\240\003@\017\362P\017\345\000\020\363@\017\3410\016\353\320\006\360 \017\357@\017\3450\016\364\360\016\362\320\006\342P\017\346`\016\345 \017m0\017\351\240\017\345\000\340\001@\320C8\310\3039\224\003=\264\3018\300C=\000\347`\016\370\220\007p`\007\000A\017\341 \017\347P\016\364\320\006\346P\016\341@\017\365 \017\3450\017\300\032\304\201\035\264\2018\244\003=\264A:\270\303<\320\303<\260\301\032\214C:\264A:\270\303<\320\303<\260\301\032\220\003;\264A:\270\303<\320\303<\260\301\032\220\303;\320C\034\264A:\270\303<\320\303<\260\301\032\220\303;\320C\034\300A\033\244\203;\314\003=\314\003\033\254\0019\274\003=\310A\033\244\203;\314\003=\314\003\033\254\0019\274\003=\334A\033\244\203;\314\003=\314\003\033\254\0019\300\003<\260\301\032\234\2039\340\003\036\264A:\270\303<\320\303<\260\301\032\234\2039\340C\036\264A:\270\303<\320\303<\260\301\032\314C\033\264C9\264\203<\224C8\260\003=\244C;\224\003\033\254\301<\264A;\224C;\320C:\264C9\264A:\270\303<\320\003\033\254\301=\204\203=\224\2039\310\303;\270\003=\314C:\350C9\330\001\035\000\033Vd\f\376\377\377\377\177\000L\001\360\003\000\016\200?\000$\240\017\002[\230\003\302\035\336\241\r\350A\036\302\001\036\340!\035\334\341\034\332\240\035\302\201\036\320\001\240\007y\250\207r\000\210y\240\207p\030\207uh\003x\220\207w\240\207r\030\007zx\007yh\003q\250\007s0\207r\220\2076\230\207t\320\207r\000\360\000 \350!\034\344\341\034\312\201\036\332`\034\340\241\036\200s0\007|\310\0038\260\003\200\240\207p\220\207s(\007zh\003s(\207p\240\207z\220\207r\230\007`\r\342\300\016\332@\034\322\201\036\332 \035\334a\036\350a\036\330`\r\306!\035\332 \035\334a\036\350a\036\330`\r\310\201\035\332 \035\334a\036\350a\036\330`\r\310\341\035\350!\016\332 \035\334a\036\350a\036\330`\r\310\341\035\350!\016\340\240\r\322\301\035\346\201\036\346\201\r\326\200\034\336\201\036\344\240\r\322\301\035\346\201\036\346\201\r\326\200\034\336\201\036\356\240\r\322\301\035\346\201\036\346\201\r\326\200\034\340\001\036\330`\r\316\301\034\360\001\017\332 \035\334a\036\350a\036\330`\r\316\301\034\360!\017\332 \035\334a\036\350a\036\330`\r\346\241\r\332\241\034\332A\036\312!\034\330\201\036\322\241\035\312\201\r\326`\036\332\240\035\312\241\035\350!\035\332\241\034\332 \035\334a\036\350\201\r\326\340\036\302\301\036\312\301\034\344\341\035\334\201\036\346!\035\364\241\034\354\200\016\200\r\f\031\030\000)\000g\020\004D\220\006\304\006\250\f\024`\001H\0018\003\240\n\002\"H\003bCd\006\377\377\377\377?\000\247\000\370\001\360\007\200\004\324\001\320\007\201-\000\033\2163\370\377\377\377\377\001\220\002[\370\203\r\004\032\020\300\031l \322\240\000\316`\003\241\006\006p\006\033\21058\2003\330@\260\001\002\234\301\006\242\r\022\340\f6\020n\240\000g\260\201x\203\0058\003\000\000I\030\000\000\037\000\000\000\023\214@\030\210\302\2300\034H2!P&(\013\3238\017\024I\0235\241\250\254\013\313&\f\232\265M\b\270\tA7\201\360\276\r\f&\020^\030l`0\201\020\003k\003\203\t\304\030X\033\030L8\002a \n\203\f&,\013\3238\017\024I\023U\006\023\0023\230\020\234\301\204BA\2034P\2035\2300(j\300\006\023\020%\r\324`\r\330\240\r\334\340\r&\020J\032\250\301\032\000\000\023\242ph\007r8\207qp\2076\b\207v \2076\b\207v \007t\230\207p\330\000\033\345\320\006\360\240\007v@\007z`\007t\320\006\360\020\007z`\007t\240\007v@\007m\000\017r\240\007s \007z0\007r\320\006\3600\007z0\007r\240\007s \007m\000\017t\240\007v@\007z`\007t\320\006\360P\007z0\007r\240\007s \007m\000\017v\240\007s \007z0\007r\320\006\360p\007z\020\007v\000\007z \007u`\007z \007u`\007z0\007r\320\006\360\200\007z\020\007r\200\007z\020\007r\200\007m\220\016v@\007z`\007t\320\006\366\020\007v\240\007q`\007m`\017r@\007z0\007r\320\006\3660\007r\240\007s \007m`\017t\200\007z`\007t\320\006\366\220\007v\240\007q \007x\320\006\366\020\007y \007z \007u`\007m`\017rP\007v\240\007rP\007v\320\006\366P\007q \007zP\007q \007m`\017q\000\007r@\007z\020\007p \007t\320\006\366 \007p@\007x\240\007r\000\007t\200\007m\340\016s \007z`\007t\320\006\2630\007r\320\006\241P\007mp\nq\320\006\356\220\016zp\007z\200\007+\032v`\007{h\0077h\207r\240\207p \207p\240\207pPz@\210\220\0242d\244\310\220\240\021\302\344\224\r\346\362\361\213.\017\273\347\346\267\274\375\225\227\311\365q\3715\247\223\277\3517=\374\235\323\311_{yL\177\313]c8|\307\004P\301\201\007\021\000\004\200\000\000\000\020P\000\260c\242\316 8\360 \002\200\000\020\000\000\000\002\n\000vL{\220\006\301\201\007\021\000\004\200\000\000\000\020P\000\260c\"\0070\b\016<\210\000 \000\004\000\000\200\200\002\200\035\023I\230Ap\340A\004\000\001 \000\000\000\004\024\000\354\230(\200\030\362 \t\000\000\b\000\000\000\002\n\000vL\024P\034|\220\020\000\000\004\000\000\000\001\005\000;&\265\020\217\303\350\203\b\000\004\000\000\000\000\b(\000\3301\261Lx$\307(D\000 \000\000\000\000@@\001\300\216\211\002\212\243\024\022\002\000\200\000\000\000 \240\000`\307D\001\305q\n\t\001\000@\000\000\000\020P\000\300v\002\227\345\240\002\204\035\023\005\024\207*$\004\000\000\001\000\000@@\001\300\216i\247\320\3430\372 \002\000\001\000\000\000\000\002\n\000vL#w\036\311\301\n\021\000\b\000\000\000\000\020P\000\260cR\307@\f\034\243\025\006\000\000\000\000\000\000 \240\000`\307\304\222\301\025L\256\020\001@\000\b\000\000\000\001\005\000\034M\220\200\006,\b\034R\325e\340\032\323.\000Q\000\000\002 \000\000\000\000\001@\001C\252\221\r$\n\b\000\000\000\000@\000\000\000\000\000\200\002\206T5\033X\026\020\000\002\000\000\000\000\000\000\000\000\000\005\f\251\3266\240, \000\004\000\000\000\000\000\000\000\000\000\n\030R\375m\360]@\000\f\000\000\000\002\000\000\000\000\000\0240\244\362\335\000=0\000\030\b\000\000\000\000\000\000\000\b\000\n\030R\231v\200]@\000\f\000\000\000\002\000\000\000\000\000\0240\244\362\355\240\313\200\000\030\000\000\000\004\000\000\000\000\000(`H\265\337\201\031h\0000\024\000\000\000\000\000\000\000\020\000\0240\244\n\363\200\332\200\000\030\000\000\000\004\000\000\000\000\000(`HU\347\001\305\001\001\000\000\000\000\b\000\000\000\000\000P\300\220*\325\2031\310\000`0\000\000\000\000\000\000\000 \000(`H\305\356\201\031l@\000\f\000\000\000\002\000\000\000\000\000\0240\244\222\371\000\243\200\000\030\000\000\000\004\000\000\000\000\000(`H\245\366\201\223\001\001p\000\000\000\b\000\000\000\000\000P\300\220\n\357\0033\350\200\000\000\000\000\000\004\000\000\000\000\000(`H\345\373\201\347\001\001\000\000\000\000\b\000\000\000\000\000P\300\220\212\377\003\351\003\002\000\001\000\000\020\000\000\000\000\000\240\200!\225\013\nh\240\001\300P\000\000\000\000\000\000\000@\000P\300\220\312\016\2052\310\000`0\000\000\000\000\000\000\000 \000(`H\265\213\302\031\200\001\000\f\t\000\000\000\000\000\000\000\004\000\005\f\251DRH\0030\000\200A\001\000\000\000\000\000\000\200\000\240\200!\325Z\ng\000\006\0000,\000\000\000\000\000\000\000\020\000\0240\244\222M!\r\300\000\000\006\006\000\000\000\000\000\000\000\002\200\002\206T\373)\214A\030\000\001\000\000\000\000\b\000\000\000\000\000P\300\220\312G\005J\f\200\000\000\000\000\000\004\000\000\000\000\000(`H%\247\002m\214\301.\000Q\003\000\002 \000\000\000\000\001@\001C*\023\026\334\203\f\000`p\000\000\000\000\000\000\000 \000(`HE\337\002\032h\0000\024\000\000\000\000\000\000\000\020\000\0240\244\342q\241\f2\000\030\f\000\000\000\000\000\000\000\b\000\n\030R\205\272\200\006\032\000\f\005\000\000\000\000\000\000\000\004\000\005\f\251\322](\203\f\000\006\003\000\000\000\000\000\000\000\002\200\002\206T./\244\001\030\000\300\220\000\000\000\000\000\000\000@\000P\300\220\352\356\2055\000\003\000\030\024\000\000\000\000\000\000\000\b\000\n\030R\211\277\220\006`\000\000\303\002\000\000\000\000\000\000\000\001@\001C\252\025\034\330\000\f\000``\000\000\000\000\000\000\000 \000(`Hu\207CS\006@\000<\000\000\000\000\000\000\000\000\000\024 \261A\240\260\037\004\000@\026\b\000\000\000(\000\000\0002\036\230\034\031\021L\220\214\t&G\306\004C\nF\000\210PkWw\257\335\357\273{Ww\257\335\357\273{\007\333\301v;\n\212\240X\250\300\342\226\273\351\nt\214\000\3200\002P\004\204\340\320\353\371H0\006\f\214\201\003Jp\370\001\203\024\024!\b\025X\334\2067]\201\202\"D\240\002\213[\361\246+\3202\003@A\021\006P\201\305\ry\323\025H0\006\032(\301\341\007T\2223\002@A\201\032\220`\254,\020\204\201\223\202\202\034\367\356e(\325\202\022(\204r(\263\202 i\004\200\322\032\000\000\000\261\030\000\000\315\000\000\0003\b\200\034\304\341\034f\024\001=\210C8\204\303\214B\200\007yx\007s\230q\f\346\000\017\355\020\016\364\200\0163\fB\036\302\301\035\316\241\034f0\005=\210C8\204\203\033\314\003=\310C=\214\003=\314x\214tp\007{\b\007yH\207pp\007zp\003vx\207p \207\031\314\021\016\354\220\016\3410\017n0\017\343\360\016\360P\0163\020\304\035\336!\034\330!\035\302a\036f0\211;\274\203;\320C9\264\003<\274\203<\204\003;\314\360\024v`\007{h\0077h\207rh\0077\200\207p\220\207p`\007v(\007v\370\005vx\207w\200\207_\b\207q\030\207r\230\207y\230\201,\356\360\016\356\340\016\365\300\016\3540\003b\310\241\034\344\241\034\314\241\034\344\241\034\334a\034\312!\034\304\201\035\312a\006\326\220C9\310C9\230C9\310C9\270\3038\224C8\210\003;\224\303/\274\203<\374\202;\324\003;\260\303\f\307i\207pX\207rp\203th\007x`\207t\030\207t\240\207\031\316S\017\356\000\017\362P\016\344\220\016\343@\017\341 \016\354P\0163 (\035\334\301\036\302A\036\322!\034\334\201\036\334\340\034\344\341\035\352\001\036f\030Q8\260C:\234\203;\314P$v`\007{h\0077`\207wx\007x\230QL\364\220\017\360P\0163\036j\036\312a\034\350!\035\336\301\035~\001\036\344\241\034\314!\035\360a\006T\205\2038\314\303;\260C=\320C9\374\302<\344C;\210\303;\260\303\214\305\n\207y\230\207w\030\207t\b\007z(\007r\230\201\\\343\020\016\354\300\016\345P\016\3630#\301\322A\036\344\341\027\330\341\035\336\001\036fH\031;\260\203=\264\203\033\204\3038\214C9\314\303<\270\3019\310\303;\324\003<\314H\264q\b\007v`\007q\b\207qX\207\031\333\306\016\354`\017\355\340\006\360 \017\3450\017\345 \017\366P\016n\020\016\3430\016\3450\017\363\340\006\351\340\016\344P\016\3700#\342\354a\034\302\201\035\330\341\027\354!\035\346!\035\304!\035\330!\035\350!\037f \235;\274C=\270\0039\224\2039\314X\274pp\007wx\007z\b\007zH\207wp\207\031\313\347\016\3570\017\341\340\016\351@\017\351\240\017\3450\303\001\003s\250\007w\030\207_\230\207pp\207t\240\207t\320\207r\230\201\204A9\340\3038\260C=\220C9\314@\304\240\035\312\241\035\340A\036\336\301\034f$c0\016\341\300\016\3540\017\351@\017\3450C!\203u\030\007sH\207_\240\207|\200\207r\230\261\224\001<\214\303<\224\3038\320C:\274\203;\314\303\214\305\fH!\025Ba\036\346!\035\316\301\035R\201\024fLg0\016\357 \017\357\340\006\357P\017\3640\017\351@\016\345\340\006\346 \017\341\320\016\3450\003A\003r\020\207sp\003r(\007s\230\341\244\001:\224C8\300C8\260\003;\274\3038\314C:\320C9\3148\324`\036\344a\034\330\341\035\306\001\000y \000\0002\001\000\000r\036H C\210\f\031\tr2H #\201\214\221\221\321D\240\020(d<12B\216\220!\243(Qh\006l!\027\206\246\030M\262\016%1<\017\261l\332\006\000\000\000_ZNSt3__113__par_backend17__omp_gpu_backend35__omp_parallel_for_simd_reduction_1B7v180000INS_6ranges9iota_viewIiiE10__iteratorEliiZ4mainE3$_0EET1_T_T0_S8_NS_4plusIT2_EET3_i_ZNSt3__113__par_backend17__omp_gpu_backend35__omp_parallel_for_simd_reduction_2B7v180000INS_6ranges9iota_viewIiiE10__iteratorES6_liiZ4mainE3$_1EET2_T_T0_T1_S8_NS_4plusIT3_EET4_ikernelamdgpu_code_object_versionwchar_sizeopenmpopenmp-devicePIC Levelclang version 18.0.0 (https://github.com/AntonRydahl/llvm-project 96adadf8f7227f6543537056f27f98cb18bbe8ce)AMD clang version 16.0.0 (https://github.com/RadeonOpenCompute/llvm-project roc-5.6.0 23243 be997b2f3651a41597d7a41441fff8ade4ac59ac)intomnipotent charSimple C++ TBAAlongany pointerllvm.loop.parallel_accessesllvm.loop.vectorize.enable_ZTS21_globalized_locals_tyfY\000\000\000\000\000\0000\202\020\334\301\bB\240\007#\b\001,\214 \004\2610\202\020\310\302\b\202 \215 \bl0\202\020\264\302\bB0\013#\b\001-\214 \004\2650\202\020\330\302\bB\220\007#\b\322-\214 \244\001.\314pLT\025X\3234\3031Q\225`M\327\f\0036\\3\f\331p\3150\\\2046\303p\025\333\f\003gt3\f\334\321\3150x\3105\203\360M3\004\311\f\2012C\320\31400n\000\0063\f\313\033\200\301\f\003\034\300\001\030\31408o\000\0063\fr \007`0\303\360\274\001\030\3140\320\001\035\200\301\fB\024\0063\f\322\033\200\301\f\303\035\274\001\030\234\031\000b \006b \006b\300\211\201\030\210\201\030\210\201\030\210\201\030\240\201\036\350\201\030\210\201\030\210\201\030\210\201\030p\226e\271\201\033\320\201\033\320\201\033\320\201\030\270\201\214\004&(\241\2676\270\257733\266\26702\22747\263\267Q\2040\020\203\204\334\354\354\332\\\302\334\334\336\350\302\350\322\336\334\346F\021\306\200\f2bc\263ksi{#\253c+s1c\013;\233\033\245(\00338\0034H\203\234\330\330\354\332\\\330\322\334\326\312\344\\\336\340\350\322\336\334\346F\001Rz\203+s\033csy\033cs\261+\223\233K{s\033%P\203T\330\330\354\332\\\322\310\312\334\350F\021\326\200\r\000\251\030\000\000-\000\000\000\013\nr(\207w\200\007zXp\230C=\270\3038\260C9\320\303\202\346\034\306\241\r\350A\036\302\301\035\346!\035\350!\035\336\301\035\0264\343`\016\347P\017\341 \017\344@\017\341 \017\347P\016\364\260\200\201\007y(\207p`\007vx\207q\b\007z(\007rXp\234\3038\264\001;\244\203=\224\303\002k\034\330!\034\334\341\034\334 \034\344a\034\334 \034\350\201\036\302a\034\320\241\034\310a\034\302\201\035\330a\301\001\017\364 \017\341P\017\364\200\016\013\210u\030\007sH\207\005\3178\274\203;\330C9\310\3039\224\203;\214C9\214\003=\310\003;\000\000\000\000\321\020\000\000\032\000\000\000\007\314<\244\203;\234\003;\224\003=\240\203<\224C8\220\303\001pP\204\3039\224\203;\320\303\001\023\016\347P\016\356@\017m\360\016\356P\016m\020\016\363p`\274\203;\224C\033\204\303<\034@\367\360\016\362\260\016\347 \017\357P\017\360\320\006\357\340\016\345\320\006\3410\017\007\311=\274\203<\254\3039\310\303;\324\003<\000\000a \000\000\304\001\000\000\023\004J,\020\000\000\000\f\000\000\000$\030\003\b\024\324\000I\005W\020\205P\003%@\2021\220@A\331\006\220T\200\004\024\224A)\024\003\t#\000$\225\003\t\306\300\003\005\005\b\001\000\3610\000\000\004\000\000\000+\200\025\203\036\354\201\035l\020\240<\000\000\000\0003\021A \013\2430\023!\005\262@\n3\021R \013\2440\023!\005\262@\n3\021A \013\2430\023q\006\201,\204\302L\004\032\004\262@\n3\021P \013\244\220\035\300#\006\305\020\202`@\225\2036\334\020h`0\313 \004\201\216\030\024C\b\202\001\265\013z0b`\000 \b\006\3269l\306\210\201\001\200 \030X\347\240\025\311\b\234\210\300\211\b\234\210\300#\006\006\004\202``\255C\007\r\033\020\020*\f\000\232\001\007\002\303\rg\220\006f0\3130\034A:\002'$pJ\002'%\360\210\201\001\201 \030X\361@\006\325\260\001Q\271\001\001\214\030\030\020\b\202\201\025\017d@\r\033\020\224A\000#\006\006\004\202``\305\003\031L\303\006\304\024\006\0040b`@ \b\006V<\214\2014l@H\2560\000#\006\006\004\202``\305C\030D#\006M\004\202`p\275\003\030,\037\021\bC\030xDId\304\300\000@\020\f\312\000\026\202c\330\200\260\002\002\240K\"\303\r\301\033\240\301,\003a\004\035\035(Y\270\203\216\016\325,\304B\312\201\240\035\035\256Z \203\216\016\230-\350AG\207\354\026\312\240\243\203\206\013e0KP\fTH\022\321\024\003\025\222EDE\n\202\016\033\020^@\000)\b:l@,\001\001\f\033\020JB\000\303\006\004\222\021\300\260\001q\344\001\001\f\033\020\006F\000\303\006Dq\007\0040b\320H \b\006_<\320\202&\nuP\007\375\220\006\027\032\220\030H\204\312@\"\030\b 0l@\234A@\000d\006\022\301\200\000\201\021\003\003\000A0(\203q\b\264a\003\"\r\002\002\030n B\001\rf\031\n#\03010\006\020\004\203L$\354 \fF\f\214\001\004\301\3002\211;8\203Y\202c\304\300\030@\020\f,\223\310\0034\03010\006\020\004\003\313$\364 \rF\f\214\001\004\301\3002\t=P\203\021\003c\000A0\260LB\017\326`\330\200(\0030 \200\021\203g\002A0\b\203x\330\2050p\2036\350\356\301\036\352\201\036\346A\036\206\033\002U\000\203Y\006$\t\310\f\202Ao\020\f\f\004\020\0306 \322 \030\200\021\203b\000A0\360\374\301\ff\t\222\021\003c\000A0\260V\302\017\342`\304\300\000@\020\f\254\225\000\2055\03010\000\020\004\003k%\376@\rF\f\210\001\004\301@\f\352a\226 \b\007\002\000\000\310\000\000\000v\030\300\370\016\363\370H\345\323\265\217\330g\300\001\fC\335\373\210A\0060\276\303<>R\3714\356#G\2409\314\343#MCD~\341D~\340\f\230\277D\376s\370\210\361U\377?E@#\025N\304\340> \t\2004\371\310\035D\016\363\370OD\bN3\370D3\370\210a\006\034\3000\324\264\217X\037'\000\317DE\304\360W@$\375\3000D\222\017H\002 M>by\016q\021\302OID\364\013\316@Xf\000\"8\315P\347>bY\303\3777\026\030P\371\016\363\370\210\364/\2004\371\200$\000\322\344#\366gHTp\373\210m!\377\037\021\003%\020\366\226\374?\322 S\355#'\360P\022\021\375\2023\020>\321L\021f]\307\377\027H$Mg\3608\314\343/\216\363\370\304\205L>b\232\001\206\300<\273\217\330\036\364\377H\203L\265\017H\002 M>bv\231\3570\217\037\021\003%L\210\323\370\0211\374\013\"M>r\003\222\303<\376\023\021\202\323\f\376t\020\215\217\230a\200!8\315\340#\026\347\370\016\363\370\202\303\004>\025\370\210\371\201\201\3570\217\037\021\003%L\210\323\370\0211\374\013\"M> \t\2004\371\b)\001<\276\276\336\332\340\276\336\314\314\330\336\302\310\322\334\316\276bl\276lf\310\304\310p\306p\276\276\264\234\246\350f\276\276bbf\276\276\340\302\344\276\304\302\306\326\312\334\310bn\276\276\336\332\340\276\316\340\352\276\304\302\306\326\312\334\310fj\276\276\336\332\340\276\340\302\344\302\330\330\312\330\276\314\336\344\276\346\322\332\310\276\344\312\310\352\306\350\322\336\334\276b\204n\354bp````\222\234\246\276l\344\302\334\316\312\346r\322\336\350\302\276\354\322\312\356\222\322\322\212b`\276\276\322\350\312\344\302\350\336\344\212\330\322\322\264h\332\302\322\334\212fH\276`\212\212\250b\276\250\276\250`\276\246p\276\234\246\276h\340\330\352\346\222\250d\276\212\212\250f\276\322\276\330fhb\276\336\332\340\276\336\352\350\330\322\334\312\310\\\312\360\322\350\254\256\022\200g\242\"b\370+ \222~`\030\"\311G,2\240\221&'\"\030\"2\210\333Gl\316\361\035\346\361\021\351_\000i\362\021\243s\376\177\212\200F*\234\210\301}\304\000\003\n\201y|\304\004\003(\337a\036_\232\"d |@\022\000i\362\021C\f8\004\346\331m\037\261\273\346\377\221\006\231|cq\002`9\200\202h\246\b3-\343\377\221\006\231\3142\300\000\206\241\367\221C\250|\207y\374\210\030(aB\234\306\237\016\242\361\021\223k|\207y|i\212\220\201\360\021\203s|\207y|\301a\002\177\t|\304\006\003*\337a\036_p\230\300\247\002\037\220\004@\232|\304\b\003*\337a\036_p\230\300_\002\037\220\004@\232|\304\270\226\377\237\"\240\221\n'b.@\021\034\206q\032?\"\246+\240\034\346\361\221\246!\"\277p\"?p\006\314G\000\000\0011\000\000'\000\000\000[\206*\200\203-\203\027\310\301\226\001\f\0029\3302\210A \007[\0062\b\340`\313\220\006\201\034l)\360 \240\203\f\017\266\024z\020\320A\206\007[\212=\b\350 \303\203-\005\037\004t\220\341\301\226\242\017\002:\310\360`K\341\007\001\035dx\260\245\370\203\200\0162<\3302\200B\206\007[\212P\b\344 \303\203-\205(\004r\220\341\301\226\202\024\0029\310\360`KQ\n\201\034dx\260e@\205@\016\266\f\252 \345\301\226\301\026\0028\3302\334B\000\007[\206\\\b\340\000\000\000\000!1\000\000\026\000\000\000\013\206\000\310\211\005D \0006\261`\b\200}X`\004\300@\b\372\260\240\000\204!\260\207\005\013 \fDa\034H\022\324\303\202b\000\002a\036\026\030\004\020\b\203<,H\016 \020\006\2420\342a\001b\000\2010\020\005<,0\002@\030\210w\2300\004@2a\b\200\000\000\000\000\000\000a \000\000\000\001\000\000\023\004H,\020\000\000\000\005\000\000\000$\025D\t\024\002\t\306\200\002\005%D\2021\220\000\000\000\000\3610\000\000\004\000\000\000+\200\025\203\036\354\201\035l\020\240<\000\000\000\0003\021R \013\2440\023!\005\262@\n3\021R \013\2440\023\021\004\2620\n3\021A \013\2430\023\001\005\262@\n)\b\234\202\300\303\rSf\006\263\f\301\021\244!p\"\002\247\"p2\002\217\030\030\003\b\202\201\025\016S3b`\f \b\006V8L\314\260\001\321h\0040l@0\031\001\214\030\030\003\b\202\201\025\016\3232l@,\022\001\214\030\030\003\b\202\201\025\016\2212l@(~0\000#\006\306\000\202``\205C\224\020\027\214\021\203&\002A0\270|!\n\240B\030\210i\"G\"\303\r\301&\006\263\f\204\020\320\025\fz$2K0\fTH\210\260\f\003\025\001J\b\307\220B\000W\004\200\301\000\002h\024 0\334\020\220\201\030\3142\020C0P\021\320D`\f\303\006\204\025\f\300\210\2011\200 \030d\351\2605\303\006DE\021\300\210\301B\201 \030t\341 \n\r\034\200\301\204\016\3450\334\020\304\001\030\3142\024F@f\020\f\312\202\201\201\000\002\303\006D\032\004\0030bP\f \b\006^9H\263\004\306\210\2011\200 \030X\3620\006\333\210\2011\200 \030X\3620\006\334\210\2011\200 \030X\362P\006\335\210\2011\200 \030X\362P\006\336\210\2011\200 \030X\362P\006\337,\301\241\341@\000t\000\000\000\266\306\370\016\363\370\210\364/\2004\235\000\3460\217\2174\r\021\371\205\023\371\2013`\376\022\371\317an\316\377#\r2\341> \t\2004]\301\344;\314\343G\304@\t\023\3424\376t\020\215u\r\377\337\\\000\3440\217\377D\204\3404\203?\035Dcz\213\3570\217\217T>]\327\366\205\374\177D\f\224@\030\235\343;\314\343/\201\017H\002 M\306\325\370ODT\210CI>\025\3707 9\314\343#MCD~\341D~\340\f\230\205\035\377_ \2214\231a@\001\fC\275\033\333\361\377H\203L\270i-~\340P\315\360O\310\340\333\233\347;\314\343G\304@\t\023\3424~D\f\377\202H\223\017H\002 Mw\3608\314\343?\021!8\315\340\023\315`\201\001\f0\f>\302\373\213 I\200\335%\002\363\350~\343L\275e1\276\2618\001\260\374\0232\370\266\207\000\303\340#|M\233\332\342;\314\343KS\204\f\204\241\035\276\303<\376\022X\333\345;\314\343G\304@\t\023\3424~D\f\377\202H\223\341e\200a\370\023\363\370R\344\000>\355\323\276\340<\330\342\000\203m5\376\023\021\025\342P\222\277\004\276\3159\276\303<>\025\370\200$\000\322d\177\0050\f\265mq\223\3570\217\217H\377\002H\223\017H\002 M\226v\370\016\363\370Tp\000\005\321L\021f^\306\377#\r2Y_\"8Me\373\210\217\034A\3430\217\2778\316\343\023\0272\031\334 0\217\201-\377?E@#\025N\304\230\234\344;\314\343KS\204\f\204\017H\002 M\346W\000\303\340#g0\371\016\363\370\0211P\302\2048\215?8\ra\200\001\210\300<\272\3378\023\000\000\000\000\0011\000\000\022\000\000\000[\006(\220\203-C\024\310\301\226a\n\344`\313P\005p\260e\270\0028\3302d\201\034l\031\270\f\017\266\024] \007\031\036l\031\314@\312\203-\003\032\004p\260ep\203\000\016\266\fo\020\300\301\226!\016\0028\000\000\000!1\000\000\r\000\000\000\013\212\000\020\206zX`\b\0010\020\354\260\240\b\000aX\207\005\206\020\000\003\241\016\013\212\000\020\206tX`\b\0010\020\350\260\200\020\200\200\027&\f\0010\000\000\000\000\000\000a \000\000<\000\000\000\023\004E,\020\000\000\000\002\000\000\000d\214\000\224@\021\000\000t\b\204\202`\214\030\020C\b\202\301v\n\031\0300bp\f!\b\006\034*\fI0\334\220 `0\334\240 `0\334\3200dp\201\240\303\r\215\002\006\0071:\334\0208`p\301\240\303\r\022d\006\027\bz\312\261\027\b;\313\020\b\001a\002\241 \030\030< 0l@\f\301\000\314\022\b\303\rZ6\006\027<:\3130\020\001u\002\0316 \202i\000f\t\b\r\007\002\013\000\000\000\027@L\007\321\234\200\201\024\202\323L\007P\020\315\024a\026G\370\025\260\334@1\035D\203\333\\\001\f\203\217\034\301\201\024\202\323L:\000\0011\000\000\003\000\000\000[\206)\200\203-C\025\300\001\000\000!1\000\000\005\000\000\000\013\206\000 \207\005D\000\b\2710a\b\000b\302\020\000\002\000\000\000\000\000a \000\000H\000\000\000\023\004E,\020\000\000\000\003\000\000\000\024\224\037\t\306\000\003\005\305\000\000\000#\006\305\020\202`@\375\2017b@\f!\b\006[(\214\030\020C\b\202\301&\n\027\030:b@\f!\b\006\033)\214\030\030C\b\202A6\nG1\334 \260\001\030\3142\004Bp\302\221}\031t\301\r\002j\004BA0\206\r\210!\030\202Y\002a\304\300\030B\020\f2T`\224\341\206\304!\203Y\206\201\b\3722\370\202\034(\024\t\204\204`\016\033\020B0\000\263\004\204\206\003\001\000\025\000\000\0006\266X@\364\374\f MDt\001\304t\020\315\t\030H!8\315daMS=\323\365/@C\374\310p\000\005\321L\021fdMS=\323\365[@\364\374\310p\003\305t\020\215mh\020\"\375\2000!\025\361OGD\000\303\021\034H!8\315\204\003\000\000\000\0011\000\000\005\000\000\000[\006%\240\203-\203\024\320\301\226a\n\340`\313@\005p\000!1\000\000\003\000\000\000\023\206\000 &\f\001 \000\000\000\000\000\000\000\000a \000\000<\000\000\000\023\004E,\020\000\000\000\002\000\000\000d\214\000\224@\021\000\000t\b\204\202`\214\030\020C\b\202\301v\n\031\0300bp\f!\b\006\034*\fI0\334\220 `0\334\240 `0\334\3200dp\201\240\303\r\215\002\006\0071:\334\0208`p\301\240\303\r\022d\006\027\bz\312\261\027\b;\313\020\b\001a\002\241 \030\030< 0l@\f\301\000\314\022\b\303\rZ6\006\027<:\3130\020\001u\002\0316 \202i\000f\t\b\r\007\002\013\000\000\000\027@L\007\321\234\200\201\024\202\323L\007P\020\315\024a\026G\370\025\260\334@1\035D\203\333\\\001\f\203\217\034\301\201\024\202\323L:\000\0011\000\000\003\000\000\000[\206)\200\203-C\025\300\001\000\000!1\000\000\005\000\000\000\013\206\000 \207\005D\000\b\2710a\b\000b\302\020\000\002\000\000\000\000\000a \000\000H\000\000\000\023\004E,\020\000\000\000\003\000\000\000\024\224\037\t\306\000\003\005\305\000\000\000#\006\305\020\202`@\375\2017b@\f!\b\006[(\214\030\020C\b\202\301&\n\027\030:b@\f!\b\006\033)\214\030\030C\b\202A6\nG1\334 \260\001\030\3142\004Bp\302\221}\031t\301\r\002j\004BA0\206\r\210!\030\202Y\002a\304\300\030B\020\f2T`\224\341\206\304!\203Y\206\201\b\3722\370\202\034(\024\t\204\204`\016\033\020B0\000\263\004\204\206\003\001\000\025\000\000\0006\266X@\364\374\f MDt\001\304t\020\315\t\030H!8\315daMS=\323\365/@C\374\310p\000\005\321L\021fdMS=\323\365[@\364\374\310p\003\305t\020\215mh\020\"\375\2000!\025\361OGD\000\303\021\034H!8\315\204\003\000\000\000\0011\000\000\005\000\000\000[\006%\240\203-\203\024\320\301\226a\n\340`\313@\005p\000!1\000\000\003\000\000\000\023\206\000 &\f\001 \000\000\000\000\000\000\000\000a \000\000\017\000\000\000\023\004\001\005\002\311A\222\316\f\305\021\320\020\214a\003B\b\020@\303\201\000\002\000\000\000\007P\020\315\024a\000\000\0011\000\000\003\000\000\000[\006 \240\203-\003\021\334\001\000\000\000\000\000\000a \000\000\033\000\000\000\023\004A\n\222tf \214\200\006\201P\020\f\032\202\201\201\000\002\303\006D\021\f\200\206\003\001\000\000\007\000\000\000\346E\370\025\260XX\001\f\203\217\034@A4S\204\331\027\342W\300\342W\300\002\000\000\0011\000\000\004\000\000\000[\206!\200\203-\003\021\300\301\226\301\b\340\000\000!1\000\000\002\000\000\000\013\206\000\350\005\000\000\000\000\000\000\000a \000\000\017\000\000\000\023\004\001\005\002\311A\222\316\f\305\021P\020`\0306 \210`\0004\034\b\002\000\000\000\007P\020\315\024a\000\000\0011\000\000\003\000\000\000[\006 \240\203-\303\020\334\001\000\000\000\000\000\000a \000\000\035\000\000\000\023\004A\n\222tf \214\200\006\201\220\020\f\022\202\201\201\000\002\303\006\004\021\f\200\206\003\001\000\000\r\000\000\000\346E\370\025\260\330\227\031\370\016\363\370\0211P\302\2048\215\037\021\303\277 \322\344\003\222\000H\223_\001\213_\001\313\001\024D3E\230\205\025\3000\370\b\000\000\000\0011\000\000\004\000\000\000[\206!\200\203-\003\021\300\301\226\301\b\340\000\000\000\000\000\000a \000\000\321\001\000\000\023\004J,\020\000\000\000\013\000\000\000$\030\003\016\024\324\000I\005\030P\020\205P\003%@\2021\220@A\331\006\220T\200\004\024\224A)\024\003\t#\000\306\300\003\005\005\b\001\3610\000\000\004\000\000\000+\200\025\203\036\354\201\035l\020\240<\000\000\000\0003\021A \013\2430\023!\005\262@\n3\021R \013\2440\023!\005\262@\n3\021A \013\2430\023\261\006\201,\204\302L\004\033\004\262@\n3\021P \013\244\220\035\300#\006\305\020\202`@\225C6\334\020d`0\313 \004\201\216\030\024C\b\202\001\265\013z0b`\000 \b\006\3269h\306\210\201\001\200 \030X\347\220\025\311\b\234\210\300\211\b\234\210\300#\006\006\004\202``\255\003\007\r\033\020\020*\f\000\232\301\006\002\303\rg\220\006f0\3130\034A:\002'$pJ\002'%\360\210\201\001\201 \030X\3610\006\325\260\001Q\271\001\001\214\030\030\020\b\202\201\025\017c@\r\033\020\224A\000#\006\006\004\202``\305\303\030L\303\006\304\004\006\0040b`@ \b\006V<\210\2014l@H\2560\000#\006\006\004\202``\305\003\030D#\006M\004\202`p\275\303\267xD \f`\320\021%\221\021\003\003\000A0(\003X\b\216a\003\302\n\b\200.\211\f7\004o\200\006\263\f\204\021tv\240d\341\016:;T\263\020\013)\007\202vv\270ja\f:;`\266\240\007\235\035\262[ \203\316\016\032.\220Ag\207-\027\370`\226\240\030\250\220(\242)\006*$\214\210\212\024\004\0356 \276\200\000R\020t\330\200`\002\002\0306 \026\205\000\206\r\210D#\200a\003\002\321\003\002\0306 \216\214\000\206\r\b\003\017\b`\330\200(\356\200\000F\f\032\t\004\301\340\223\207Z\330F\241\016\352\000\035\322\000\233\003\032\003\211\220\031H\004\003\001\004\206\r\b4\b\b\200\316@\"\030\020 0b`\000 \b\006e@\016\3016l@\250A@\000\303\r\204(\240\301,Ca\004#\006\306\000\202`\220\215\204\035\210\301\210\2011\200 \030X'q\007h0Kp\214\030\030\003\b\202\201u\022y\220\006#\006\306\000\202``\235\204\036\250\301\210\2011\200 \030X'\241\007k0b`\f \b\006\326I\350\001\033\f\033\020f\020\006\0040b\360L \b\006a \017\274 \006o\340\006\036;\254\203:\244\003:\234\303pC\260\n`0\313\200$\001\235A0\b\016\202\201\201\000\002\303\006\204\032\004\0030bP\f \b\006\336?\234\301,A2b`\f \b\006\026K\370\201\034\214\030\030\000\b\202\201\305\022\240\300\006#\006\006\000\202``\261\304\037\254\301\210\0011\200 \030\210\201=\314\022\004\341@\000\000\000\314\000\000\000v\030\300\370\016\363\370H\345\323\265\217X\027\362\377\005\022ISm\240\001\0070\fu\357#\026\031\300\370\016\363\370H\345\323\270\217\034\201\3460\217\2174\r\021\371\205\023\371\2013`\376\022\371\317\341#\306W\375\377\024\001\215T8\021\203\373\200$\000\322\344#w\0209\314\343?\021!8\315\340\023\315\340#\226\031p\000\303P\323>b}\234\000<\023\025\021\303_\001\221\364\003\303\020I> \t\2004\371\210\3459\304E\b?%\021\321/8\003aY\303\3777\246\031\200\bN3\324\271\217X`@\345;\314\343#\322\277\000\322\344\003\222\000H\223\217\330\237!Q\301\355#\266\205\374\177D\f\224@\330[\362\377H\203L\265\217\234\300CID\364\013\316@\370D3E\330\031<\016\363\370\213\343<>q!\223\217\330f\200!0\317\356#\266\007\375?\322 S\355\003\222\000H\223\217\230]\346;\314\343G\304@\t\023\3424~D\f\377\202H\223\217\334\200\3440\217\377D\204\3404\203?\035D\343#f\030`\bN3\370\b)\301<\276\276\336\332\340\276\336\314\314\330\336\302\310\322\334\316\276bl\276lf\310\304\310p\306p\276\276\264\234\246\350f\276\276bbf\276\276\340\302\344\276\304\302\306\326\312\334\310bn\276\276\336\332\340\276\316\340\352\276\304\302\306\326\312\334\310fj\276\276\336\332\340\276\340\302\344\302\330\330\312\330\276\314\336\344\276\346\322\332\310\276\344\312\310\352\306\350\322\336\334\276d\204n\354bp````\222\234\246\276l\344\302\334\316\312\346r\322\336\350\302\276\354\322\312\356\222\322\322\212b`\276\276\322\350\312\344\302\350\336\344\212\246l\276\330\322\322\264h\332\302\322\334\212fH\276b\212\212\250d\276\250\276\250`\276\250b\276\246p\276\234\246\276h\340\330\352\346\222\250f\276\212\212\250h\276\322\276\330fhb\276\336\332\340\276\336\352\350\330\322\334\312\310\\\312\360\322\350,\316\361\035\346\361\005\207\t|*\360\021\363\003\003\337a\036?\"\006J\230\020\247\361#b\370\027D\232|@\022\000i\362\021\253\253\004\340\231\250\210\030\376\n\210\244\037\030\206H\362\021\223\fh\244\311\211\b\206\210\f\342\366\021\233s|\207y|D\372\027@\232|\304\350\234\377\237\"\240\221\n'bp\0371\300\200B`\036\0371/\344\377\013$\222&\333\004\003(\337a\036_\232\"d |@\022\000i\362\021C\f8\004\346\331m\037\261\273\346\377\221\006\231|cq\002`9\200\202h\246\b3-\343\377\221\006\231\3542\300\000\206\241\367\021\203s|\207y|\301a\002\177\t|\344\020*\337a\036?\"\006J\230\020\247\361\247\203h|\304\344\032\337a\036_\232\"d |\304\006\003*\337a\036_p\230\300\247\002\037\220\004@\232|\304\b\003*\337a\036_p\230\300_\002\037\220\004@\232|\304\270\226\377\237\"\240\221\n'b.@\021\034\206q\032?\"\246+\240\034\346\361\221\246!\"\277p\"?p\006\314G\000\000\000\0011\000\000)\000\000\000[\206*\200\203-\203\027\310\301\226\001\f\0029\3302\210A \007[\0062\b\340`\313\220\006\201\034l)\362 \240\203\f\017\266\024{\020\320A\206\007[\n>\b\350 \303\203-E\037\004t\220\341\301\226\302\017\002:\310\360`K\361\007\001\035dx\260\245\000\205\200\0162<\330R\204B@\007\031\036l\031D!\303\203-\305(\004r\220\341\301\226\202\024\0029\310\360`Ka\n\201\034dx\260\2458\205@\0162<\3302\250B \007[\006V\220\362`\313\200\013\001\034l\031r!\200\203-\303.\004p\000\000\000\000!1\000\000\033\000\000\000\013\206\000\320\211\005D \0007\261`\b\200}X`\004\300@\b\372\260\340\000\002B\030\npX0\004\000\037,\030\002\340\017\026\024\2000\004\366\260\200\001\204\201(\214\003I\224\240\036\026\024\003\020\b\363\260\300 \200@\030\344aAr\000\2010\020\205\021\017\013\020\003\b\204\201(\340a\201\021\000\302@\274\303\204!\000\222\tC\000\004\000\000\000\000\000\000\000a \000\0000\001\000\000\023\004H,\020\000\000\000\005\000\000\000$\025D\t\024\002\t\306\200\002\005%D\2021\220\000\000\000\000\3610\000\000\004\000\000\000+\200\025\203\036\354\201\035l\020\240<\000\000\000\0003\021R \013\2440\023!\005\262@\n3\021R \013\2440\023\021\004\2620\n3\021A \013\2430\023\001\005\262@\n)\b\234\202\300\303\r\224f\006\263\f\301\021\244!p\"\002\247\"p2\002\217\030\030\003\b\202\201%\016S3b`\f \b\006\2268L\314\260\001\321l\0040l@0\032\001\214\030\030\003\b\202\201%\016\3232l@,\022\001\214\030\030\003\b\202\201%\016\2212l@(\1770\000#\006\306\000\202``\211C\224P\027\214\021\203&\002A0\270~!\n\240B\030\210i\"G\"\303\r\001'\006\263\f\204\020\020\026\f\302\202q\201\020\024Id\226`\030\250\220\030\341\030\006*\002\227\020\206\001\211\000\004\220\030@`\270!(\0031\230e \206`\240\"\260\211\300\030\206\r\b+\030\200\021\003c\000A0\310\324ak\206\r\210\212\"\200\021\203\205\002A0\350\304a\024\2328\000\203\251\026ha\270!\220\0030\230e(\214\200\316 \030\224\005\003\003\001\004\206\r\b5\b\006`\304\240\030@\020\f<s\220f\t\214\021\003c\000A0\260\346a\f\266\021\003c\000A0\260\346a\f\270\021\003c\000A0\260\346\241\f\272\021\003c\000A0\260\346\241\f\274\021\003c\000A0\260\346\241\f\276Y\202C\303\201\000{\000\000\000\306\306\370\016\363\370\210\364/\2004Y\030\362\377\005\022ISmo\316\377#\r2\341> \t\2004]\301\344;\314\343G\304@\t\023\3424\376t\020\315\005@\016\363\370OD\bN3\370\323A4\366\205\374\177D\f\224@\230\336\006\030\206?1O]\373R\344\000>\355\323\276\340<\330\342\000\303\rH\016\363\370H\323\020\221_8\221\0378\003fm\307\377#\r2\341\006\347\371\016\363\370\0211P\302\2048\215\037\021\303\277 \322\344\003\222\000H\223i-~\340P\315\360O\310\340\337\301\3430\217\377D\204\3404\203O4\203e1\276\2618\001\260\374\0232\370\266\266\370\016\363\370\322\024!\003ay\031`\030\376\304<\276\0249\200O\373\264/8\017\2668\300`[\215\377DD\2058\224\344/\201ot\216\3570\217O\005> \t\2004\231\334\344;\314\343#\322\277\000\322\344\003\222\000H\223\371%\3000\370HM\327\366\001\024D3E\330\0214\016\363\370\213\343<>q!\223\035\006\024\3000\330\267\315I\276\303<\2764E\310@\370\200$\000\322dq\203\300<'\2009\314\343#MCD~\341D~\340\f\230\277D\376s\030\330\362\377S\0044R\341D\214\365-\276\303<>R\371t}[\327\360\377\215\3259\276\303<\376\022\370\200$\000\322d\\\215\377DD\2058\224\344S\201o\200\001\0050\f5ox\212\300<\272\3378S]\233`@\003\f\203\217\324\264\277\b\222\004X\332\341;\314\343/\201\271]\276\303<~D\f\2240!N\343G\304\360/\2104\231\030\362\377\005\022I\223mj\207\3570\217O\005\346e\374?\322 \223\355\025\022\025\370\210\375\025\3000\370\310\031L\276\303<~D\f\2240!N\343\017NCX`\000\"0\217\3567\316\004\0011\000\000\023\000\000\000[\006(\220\203-C\024\310\301\226a\n\344`\313P\005p\260e\270\0028\3302d\201\034l\031\270\f\017\266\f]\206\007[\212/\220\203\f\017\266\ff \345\301\226\001\r\0028\3302\270A\000\007[\2067\b\340`\313\020\007\001\034\000\000!1\000\0005\000\000\000\0136(\222&\n\b\006\2420\016\241\262.,C\222\205i\234G\251\026\024\0020\004b\260\240\020\200!\310\026\034\004\020\024\302\200\016\013\212\000\020\006{X\020!\211\262\004\00200\215\363\024\006q\224\303\202\007I\024 \020\206\205i\210\3028\310a\301\006E\322D\t\003Q\030\007\020T\326\205e\312\3024\316\203$\324\0020\210\244\211\252\254\0130\016D\030\210\"\3002m\343:/q\036ha\032e\034\026\030B\000\fD;,(\002@\030\330a\201!\004\300@\254\303\202\"\000\204A\035\026\030B\000\fD:,8\003\353\3022m\343:\001\b\006\2420\016$Q\274\017\f\302@\f\306\200\f\312\240Y\030\347\201\"i\242*YX@\b@\300\013\023\206\000\030\000\000\000\000\000\000\000\000a \000\000<\000\000\000\023\004E,\020\000\000\000\002\000\000\000d\214\000\224@\021\000\000t\b\204\202`\214\030\020C\b\202\301v\n\031\0300bp\f!\b\006\034*\fI0\334\220 `0\334\240 `0\334\3200dp\201\240\303\r\215\002\006\0071:\334\0208`p\301\240\303\r\022d\006\027\bz\312\261\027\b;\313\020\b\001a\002\241 \030\030< 0l@\f\301\000\314\022\b\303\rZ6\006\027<:\3130\020\001u\002\0316 \202i\000f\t\b\r\007\002\013\000\000\000\027@L\007\321\234\200\201\024\202\323L\007P\020\315\024a\026G\370\025\260\334@1\035D\203\333\\\001\f\203\217\034\301\201\024\202\323L:\000\0011\000\000\003\000\000\000[\206)\200\203-C\025\300\001\000\000!1\000\000\005\000\000\000\013\206\000 \207\005D\000\b\2710a\b\000b\302\020\000\002\000\000\000\000\000a \000\000H\000\000\000\023\004E,\020\000\000\000\003\000\000\000\024\224\037\t\306\000\003\005\305\000\000\000#\006\305\020\202`@\375\2017b@\f!\b\006[(\214\030\020C\b\202\301&\n\027\030:b@\f!\b\006\033)\214\030\030C\b\202A6\nG1\334 \260\001\030\3142\004Bp\302\221}\031t\301\r\002j\004BA0\206\r\210!\030\202Y\002a\304\300\030B\020\f2T`\224\341\206\304!\203Y\206\201\b\3722\370\202\034(\024\t\204\204`\016\033\020B0\000\263\004\204\206\003\001\000\025\000\000\0006\266X@\364\374\f MDt\001\304t\020\315\t\030H!8\315daMS=\323\365/@C\374\310p\000\005\321L\021fdMS=\323\365[@\364\374\310p\003\305t\020\215mh\020\"\375\2000!\025\361OGD\000\303\021\034H!8\315\204\003\000\000\000\0011\000\000\005\000\000\000[\006%\240\203-\203\024\320\301\226a\n\340`\313@\005p\000!1\000\000\003\000\000\000\023\206\000 &\f\001 \000\000\000\000\000\000\000\000a \000\000<\000\000\000\023\004E,\020\000\000\000\002\000\000\000d\214\000\224@\021\000\000t\b\204\202`\214\030\020C\b\202\301v\n\031\0300bp\f!\b\006\034*\fI0\334\220 `0\334\240 `0\334\3200dp\201\240\303\r\215\002\006\0071:\334\0208`p\301\240\303\r\022d\006\027\bz\312\261\027\b;\313\020\b\001a\002\241 \030\030< 0l@\f\301\000\314\022\b\303\rZ6\006\027<:\3130\020\001u\002\0316 \202i\000f\t\b\r\007\002\013\000\000\000\027@L\007\321\234\200\201\024\202\323L\007P\020\315\024a\026G\370\025\260\334@1\035D\203\333\\\001\f\203\217\034\301\201\024\202\323L:\000\0011\000\000\003\000\000\000[\206)\200\203-C\025\300\001\000\000!1\000\000\005\000\000\000\013\206\000 \207\005D\000\b\2710a\b\000b\302\020\000\002\000\000\000\000\000a \000\000a\000\000\000\023\004E,\020\000\000\000\003\000\000\000\024\224\037\t\306\000\003\005\305\000\000\000#\006\305\020\202`@\375\2017b@\f!\b\006[(\214\030\020C\b\202\301&\n\027\030:b@\f!\b\006\033)\214\030\030C\b\202A6\nG1\334 \260\001\030\3142\004Bp\302\221}\031t\301\r\002j\004BA0\206\r\210!\030\202Y\002a\304\300\030B\020\f2T`\224\341\206\304!\203Y\206\201\b\3722\370\202\034(\024\t\204\204`\016\033\020B0\000\263\004\204\206\003\001\000\025\000\000\0006\266X@\364\374\f MDt\001\304t\020\315\t\030H!8\315daMS=\323\365/@C\374\310p\000\005\321L\021fdMS=\323\365[@\364\374\310p\003\305t\020\215mh\020\"\375\2000!\025\361OGD\000\303\021\034H!8\315\204\003\000\000\000\0011\000\000\005\000\000\000[\006%\240\203-\203\024\320\301\226a\n\340`\313@\005p\000!1\000\000\034\000\000\000\013\224@\030\210\3028\020`Yp\b\003@\024A/,8\002\001 \212\341[P\fB\000\024\013\212A\b\000=X\020\007\225\325]\230\247$\037\020\b\003Q\030\007\222i`\260qa@Mb\2600\215\363@\2214\006dP\006fp\006h\220\006j\260\006l\320\006n\360\006w\260\3409\022$\000\214\245a\006A)\bP\2300\004\0001a\b\000\001\000\000\000\000\000a \000\000\017\000\000\000\023\004\001\005\002\311A\222\316\f\305\021\320\020\214a\003B\b\020@\303\201\000\002\000\000\000\007P\020\315\024a\000\000\0011\000\000\003\000\000\000[\006 \240\203-\003\021\334\001\000\000\000\000\000\000a \000\000\033\000\000\000\023\004A\n\222tf \214\200\006\201P\020\f\032\202\201\201\000\002\303\006D\021\f\200\206\003\001\000\000\007\000\000\000\346E\370\025\260XX\001\f\203\217\034@A4S\204\331\027\342W\300\342W\300\002\000\000\0011\000\000\004\000\000\000[\206!\200\203-\003\021\300\301\226\301\b\340\000\000!1\000\000\002\000\000\000\013\206\000\350\005\000\000\000\000\000\000\000a \000\000\017\000\000\000\023\004\001\005\002\311A\222\316\f\305\021P\020`\0306 \210`\0004\034\b\002\000\000\000\007P\020\315\024a\000\000\0011\000\000\003\000\000\000[\006 \240\203-\303\020\334\001\000\000\000\000\000\000a \000\000#\000\000\000\023\004A\n\222tf \214\200\006\201\220\020\f\022\202\201\201\000\002\303\006\004\021\f\200\206\003\001\000\000\r\000\000\000\346E\370\025\260\330\227\031\370\016\363\370\0211P\302\2048\215\037\021\303\277 \322\344\003\222\000H\223_\001\213_\001\313\001\024D3E\230\205\025\3000\370\b\000\000\000\0011\000\000\004\000\000\000[\206!\200\203-\003\021\300\301\226\301\b\340\000\000!1\000\000\004\000\000\000\013\036\2420\016\006\b\220DY\032a\270\005\000\000\000\000\000\000q \000\000\023\000\000\0002\016\020\"\204\022\266\017x\301/\201\032\376\024\330\301[\201$\206\026XBl\201&\216\027x\362y\201(\274\027\230\322|\201,\354\027\330\362\273\201.\361\035\370\362\352\2010\371\036\030s\373\2012\232 8\263\n\2024\310 X\223\r\002\000\000\000\000\000e\f\000\000i\001\000\000\022\003\2248\033\000\000\000\003\000\000\000D\f\000\0002\000\000\000L\000\000\000\001\000\000\000X\000\000\000\000\000\000\000X\000\000\0007\000\000\000\200\005\000\000\001\000\000\000v\f\000\000\021\000\000\000\207\f\000\000,\000\000\000\024\000\000\000\000\000\000\000\230\005\000\000\000\000\000\000\000\000\000\0007\000\000\000\000\000\000\000\265\004\000\000\316\000\000\000\265\004\000\000\316\000\000\000\377\377\377\377\022$\000\000\203\005\000\000\022\000\000\000\203\005\000\000\022\000\000\000\377\377\377\377\b$\000\000\225\005\000\000\026\000\000\000\225\005\000\000\026\000\000\000\377\377\377\377\b,\000\000\253\005\000\000\024\000\000\000\253\005\000\000\024\000\000\000\377\377\377\377\b,\000\000\277\005\000\000\037\000\000\000\277\005\000\000\037\000\000\000\377\377\377\377\b$\000\000\336\005\000\000\350\000\000\000\336\005\000\000\350\000\000\000\377\377\377\377\000 \000\000\306\006\000\000\030\000\000\000\306\006\000\000\030\000\000\000\377\377\377\377\b$\000\000\336\006\000\000\035\000\000\000\336\006\000\000\035\000\000\000\377\377\377\377\b$\000\000\373\006\000\000&\000\000\000\373\006\000\000&\000\000\000\377\377\377\377\000 \000\000!\007\000\000\024\000\000\000!\007\000\000\024\000\000\000\377\377\377\377\b$\000\0005\007\000\000\024\000\000\0005\007\000\000\024\000\000\000\377\377\377\377\b$\000\000I\007\000\000#\000\000\000I\007\000\000#\000\000\000\377\377\377\377\000 \000\000l\007\000\000&\000\000\000l\007\000\000&\000\000\000\377\377\377\377\b$\000\000\222\007\000\000\030\000\000\000\222\007\000\000\030\000\000\000\377\377\377\377\b$\000\000\252\007\000\000\016\000\000\000\252\007\000\000\016\000\000\000\377\377\377\377\b$\000\000\270\007\000\000&\000\000\000\270\007\000\000&\000\000\000\377\377\377\377\b$\000\000\336\007\000\000\036\000\000\000\336\007\000\000\036\000\000\000\377\377\377\377\b$\000\000\374\007\000\000\022\000\000\000\374\007\000\000\022\000\000\000\377\377\377\377\b$\000\000\016\b\000\000(\000\000\000\016\b\000\000(\000\000\000\377\377\377\377\000 \000\0006\b\000\000%\000\000\0006\b\000\000%\000\000\000\377\377\377\377\000 \000\000[\b\000\000'\000\000\000[\b\000\000'\000\000\000\377\377\377\377\000 \000\000\202\b\000\000)\000\000\000\202\b\000\000)\000\000\000\377\377\377\377\000 \000\000\253\b\000\000'\000\000\000\253\b\000\000'\000\000\000\377\377\377\377\000 \000\000\322\b\000\000)\000\000\000\322\b\000\000)\000\000\000\377\377\377\377\000 \000\000\373\b\000\000#\000\000\000\373\b\000\000#\000\000\000\377\377\377\377\b$\000\000\036\t\000\000\024\000\000\000\036\t\000\000\024\000\000\000\377\377\377\377\b$\000\0002\t\000\000\324\000\000\0002\t\000\000\324\000\000\000\377\377\377\377\022$\000\000\006\n\000\000\356\000\000\000\006\n\000\000\356\000\000\000\377\377\377\377\000 \000\000\364\n\000\000(\000\000\000\364\n\000\000(\000\000\000\377\377\377\377\000 \000\000\034\013\000\000%\000\000\000\034\013\000\000%\000\000\000\377\377\377\377\000 \000\000A\013\000\000(\000\000\000A\013\000\000(\000\000\000\377\377\377\377\000 \000\000i\013\000\000%\000\000\000i\013\000\000%\000\000\000\377\377\377\377\000 \000\000\216\013\000\000)\000\000\000\216\013\000\000)\000\000\000\377\377\377\377\000 \000\000\267\013\000\000+\000\000\000\267\013\000\000+\000\000\000\377\377\377\377\000 \000\000\342\013\000\000)\000\000\000\342\013\000\000)\000\000\000\377\377\377\377\000 \000\000\013\f\000\000,\000\000\000\013\f\000\000,\000\000\000\377\377\377\377\000 \000\0007\f\000\000\r\000\000\0007\f\000\000\r\000\000\000\377\377\377\377\b,\000\000\000\000\000\000\024\000\000\000\000\000\000\000\024\000\000\000\377\377\377\377\021\004\000\000\024\000\000\000'\000\000\000\024\000\000\000'\000\000\000\377\377\377\377\021\004\000\000;\000\000\000)\000\000\000;\000\000\000)\000\000\000\377\377\377\377\021\004\000\000d\000\000\000 \000\000\000d\000\000\000 \000\000\000\377\377\377\377\021\004\000\000\204\000\000\000&\000\000\000\204\000\000\000&\000\000\000\377\377\377\377\021\004\000\000\263\f\000\000\013\000\000\000\024\000\000\000\000\000\000\000\377\377\377\377\200\030\000\000\276\f\000\000\013\000\000\000\024\000\000\000\000\000\000\000\377\377\377\377\200\030\000\000\252\000\000\000\342\000\000\000\252\000\000\000\342\000\000\000\377\377\377\377\022\004\000\000\214\001\000\000\341\000\000\000\214\001\000\000\341\000\000\000\377\377\377\377\022\004\000\000\311\f\000\000\013\000\000\000\024\000\000\000\000\000\000\000\377\377\377\377\200\030\000\000\324\f\000\000\013\000\000\000\024\000\000\000\000\000\000\000\377\377\377\377\200\030\000\000m\002\000\000.\000\000\000m\002\000\000.\000\000\000\377\377\377\377\220\004\000\000\337\f\000\000\013\000\000\000\024\000\000\000\000\000\000\000\377\377\377\377\200\030\000\000\233\002\000\000\350\000\000\000\233\002\000\000\350\000\000\000\377\377\377\377\022\004\000\000\203\003\000\000\347\000\000\000\203\003\000\000\347\000\000\000\377\377\377\377\022\004\000\000j\004\000\000\"\000\000\000j\004\000\000\"\000\000\000\377\377\377\377\000\000\000\000\214\004\000\000\027\000\000\000\214\004\000\000\027\000\000\000\377\377\377\377\021\f\000\000\243\004\000\000\022\000\000\000\243\004\000\000\022\000\000\000\377\377\377\377\004\f\000\000\000\000\000\000\000\000\000\000\024\000\000\000\000\000\000\000\352\f\000\000\r\000\000\000\000\000\000\000]\f\000\000A\003\000\000\022\003\224\3679\000\000\000__omp_rtl_debug_kind__omp_rtl_assume_teams_oversubscription__omp_rtl_assume_threads_oversubscription__omp_rtl_assume_no_thread_state__omp_rtl_assume_no_nested_parallelism__omp_offloading_16_63dbd8c8__ZNSt3__113__par_backend17__omp_gpu_backend35__omp_parallel_for_simd_reduction_1B7v180000INS_6ranges9iota_viewIiiE10__iteratorEliiZ4mainE3$_0EET1_T_T0_S8_NS_4plusIT2_EET3_i_l341_dynamic_environment__omp_offloading_16_63dbd8c8__ZNSt3__113__par_backend17__omp_gpu_backend35__omp_parallel_for_simd_reduction_1B7v180000INS_6ranges9iota_viewIiiE10__iteratorEliiZ4mainE3$_0EET1_T_T0_S8_NS_4plusIT2_EET3_i_l341_kernel_environment__openmp_nvptx_data_transfer_temporary_storage__omp_offloading_16_63dbd8c8__ZNSt3__113__par_backend17__omp_gpu_backend35__omp_parallel_for_simd_reduction_2B7v180000INS_6ranges9iota_viewIiiE10__iteratorES6_liiZ4mainE3$_1EET2_T_T0_T1_S8_NS_4plusIT3_EET4_i_l341_dynamic_environment__omp_offloading_16_63dbd8c8__ZNSt3__113__par_backend17__omp_gpu_backend35__omp_parallel_for_simd_reduction_2B7v180000INS_6ranges9iota_viewIiiE10__iteratorES6_liiZ4mainE3$_1EET2_T_T0_T1_S8_NS_4plusIT3_EET4_i_l341_kernel_environment_openmp_teams_reductions_buffer_$_llvm.amdgcn.abi.versionllvm.compiler.used__omp_offloading_16_63dbd8c8__ZNSt3__113__par_backend17__omp_gpu_backend35__omp_parallel_for_simd_reduction_1B7v180000INS_6ranges9iota_viewIiiE10__iteratorEliiZ4mainE3$_0EET1_T_T0_S8_NS_4plusIT2_EET3_i_l341__kmpc_target_initllvm.lifetime.start.p5llvm.lifetime.end.p5__kmpc_distribute_static_init_8__omp_offloading_16_63dbd8c8__ZNSt3__113__par_backend17__omp_gpu_backend35__omp_parallel_for_simd_reduction_1B7v180000INS_6ranges9iota_viewIiiE10__iteratorEliiZ4mainE3$_0EET1_T_T0_S8_NS_4plusIT2_EET3_i_l341_omp_outlined_omp_outlined__kmpc_for_static_init_8__kmpc_distribute_static_fini_omp_reduction_shuffle_and_reduce_func__kmpc_get_warp_size__kmpc_shuffle_int32_omp_reduction_inter_warp_copy_func__kmpc_get_hardware_thread_id_in_block__kmpc_global_thread_num__kmpc_barrier__kmpc_nvptx_parallel_reduce_nowait_v2__kmpc_nvptx_end_reduce_nowait__kmpc_parallel_51_omp_reduction_shuffle_and_reduce_func.1_omp_reduction_inter_warp_copy_func.2_omp_reduction_list_to_global_copy_func_omp_reduction_list_to_global_reduce_func_omp_reduction_global_to_list_copy_func_omp_reduction_global_to_list_reduce_func__kmpc_nvptx_teams_reduce_nowait_v2__kmpc_target_deinit__omp_offloading_16_63dbd8c8__ZNSt3__113__par_backend17__omp_gpu_backend35__omp_parallel_for_simd_reduction_2B7v180000INS_6ranges9iota_viewIiiE10__iteratorES6_liiZ4mainE3$_1EET2_T_T0_T1_S8_NS_4plusIT3_EET4_i_l341__omp_offloading_16_63dbd8c8__ZNSt3__113__par_backend17__omp_gpu_backend35__omp_parallel_for_simd_reduction_2B7v180000INS_6ranges9iota_viewIiiE10__iteratorES6_liiZ4mainE3$_1EET2_T_T0_T1_S8_NS_4plusIT3_EET4_i_l341_omp_outlined_omp_outlined_omp_reduction_shuffle_and_reduce_func.3_omp_reduction_inter_warp_copy_func.4_omp_reduction_shuffle_and_reduce_func.5_omp_reduction_inter_warp_copy_func.6_omp_reduction_list_to_global_copy_func.7_omp_reduction_list_to_global_reduce_func.8_omp_reduction_global_to_list_copy_func.9_omp_reduction_global_to_list_reduce_func.10llvm.smin.i6418.0.0git 96adadf8f7227f6543537056f27f98cb18bbe8ceamdgcn-amd-amdhsasrc/transform_reduce/std_iota_std_vector.cpp__unnamed_1__unnamed_2__unnamed_3__unnamed_4__unnamed_5llvm.metadata\000\000\000\000"
	.size	.Lllvm.embedded.object, 21912

	.section	".linker-options","e",@llvm_linker_options
	.ident	"clang version 18.0.0 (https://github.com/AntonRydahl/llvm-project 96adadf8f7227f6543537056f27f98cb18bbe8ce)"
	.section	".note.GNU-stack","",@progbits
	.addrsig
	.addrsig_sym __gxx_personality_v0
	.addrsig_sym __omp_offloading_16_63dbd8c8__ZNSt3__113__par_backend17__omp_gpu_backend35__omp_parallel_for_simd_reduction_1B7v180000INS_6ranges9iota_viewIiiE10__iteratorEliiZ4mainE3$_0EET1_T_T0_S8_NS_4plusIT2_EET3_i_l341.omp_outlined
	.addrsig_sym __omp_offloading_16_63dbd8c8__ZNSt3__113__par_backend17__omp_gpu_backend35__omp_parallel_for_simd_reduction_1B7v180000INS_6ranges9iota_viewIiiE10__iteratorEliiZ4mainE3$_0EET1_T_T0_S8_NS_4plusIT2_EET3_i_l341.omp_outlined.omp_outlined
	.addrsig_sym __omp_offloading_16_63dbd8c8__ZNSt3__113__par_backend17__omp_gpu_backend35__omp_parallel_for_simd_reduction_1B7v180000INS_6ranges9iota_viewIiiE10__iteratorEliiZ4mainE3$_0EET1_T_T0_S8_NS_4plusIT2_EET3_i_l341.omp_outlined.omp_outlined.omp.reduction.reduction_func
	.addrsig_sym __omp_offloading_16_63dbd8c8__ZNSt3__113__par_backend17__omp_gpu_backend35__omp_parallel_for_simd_reduction_1B7v180000INS_6ranges9iota_viewIiiE10__iteratorEliiZ4mainE3$_0EET1_T_T0_S8_NS_4plusIT2_EET3_i_l341.omp_outlined.omp.reduction.reduction_func
	.addrsig_sym __omp_offloading_16_63dbd8c8__ZNSt3__113__par_backend17__omp_gpu_backend35__omp_parallel_for_simd_reduction_2B7v180000INS_6ranges9iota_viewIiiE10__iteratorES6_liiZ4mainE3$_1EET2_T_T0_T1_S8_NS_4plusIT3_EET4_i_l341.omp_outlined
	.addrsig_sym __omp_offloading_16_63dbd8c8__ZNSt3__113__par_backend17__omp_gpu_backend35__omp_parallel_for_simd_reduction_2B7v180000INS_6ranges9iota_viewIiiE10__iteratorES6_liiZ4mainE3$_1EET2_T_T0_T1_S8_NS_4plusIT3_EET4_i_l341.omp_outlined.omp_outlined
	.addrsig_sym __omp_offloading_16_63dbd8c8__ZNSt3__113__par_backend17__omp_gpu_backend35__omp_parallel_for_simd_reduction_2B7v180000INS_6ranges9iota_viewIiiE10__iteratorES6_liiZ4mainE3$_1EET2_T_T0_T1_S8_NS_4plusIT3_EET4_i_l341.omp_outlined.omp_outlined.omp.reduction.reduction_func
	.addrsig_sym __omp_offloading_16_63dbd8c8__ZNSt3__113__par_backend17__omp_gpu_backend35__omp_parallel_for_simd_reduction_2B7v180000INS_6ranges9iota_viewIiiE10__iteratorES6_liiZ4mainE3$_1EET2_T_T0_T1_S8_NS_4plusIT3_EET4_i_l341.omp_outlined.omp.reduction.reduction_func
	.addrsig_sym .omp_offloading.requires_reg
	.addrsig_sym .gomp_critical_user_.reduction.var
	.addrsig_sym .__omp_offloading_16_63dbd8c8__ZNSt3__113__par_backend17__omp_gpu_backend35__omp_parallel_for_simd_reduction_1B7v180000INS_6ranges9iota_viewIiiE10__iteratorEliiZ4mainE3$_0EET1_T_T0_S8_NS_4plusIT2_EET3_i_l341.region_id
	.addrsig_sym .__omp_offloading_16_63dbd8c8__ZNSt3__113__par_backend17__omp_gpu_backend35__omp_parallel_for_simd_reduction_2B7v180000INS_6ranges9iota_viewIiiE10__iteratorES6_liiZ4mainE3$_1EET2_T_T0_T1_S8_NS_4plusIT3_EET4_i_l341.region_id
